ARM GAS  /tmp/ccI1HsHp.s 			page 1


   1              		.cpu cortex-m3
   2              		.eabi_attribute 20, 1
   3              		.eabi_attribute 21, 1
   4              		.eabi_attribute 23, 3
   5              		.eabi_attribute 24, 1
   6              		.eabi_attribute 25, 1
   7              		.eabi_attribute 26, 1
   8              		.eabi_attribute 30, 1
   9              		.eabi_attribute 34, 1
  10              		.eabi_attribute 18, 4
  11              		.file	"heap_4.c"
  12              		.text
  13              	.Ltext0:
  14              		.cfi_sections	.debug_frame
  15              		.section	.text.prvHeapInit,"ax",%progbits
  16              		.align	1
  17              		.syntax unified
  18              		.thumb
  19              		.thumb_func
  20              		.fpu softvfp
  22              	prvHeapInit:
  23              	.LFB10:
  24              		.file 1 "/mnt/c/Users/Daniel/Documents/stm/ThirdParty/nucleo207/Middlewares/Third_Party/FreeRTOS/S
   1:/mnt/c/Users/Daniel/Documents/stm/ThirdParty/nucleo207/Middlewares/Third_Party/FreeRTOS/Source/portable/MemMang/heap_4.c **** /*
   2:/mnt/c/Users/Daniel/Documents/stm/ThirdParty/nucleo207/Middlewares/Third_Party/FreeRTOS/Source/portable/MemMang/heap_4.c ****  * FreeRTOS Kernel V10.0.1
   3:/mnt/c/Users/Daniel/Documents/stm/ThirdParty/nucleo207/Middlewares/Third_Party/FreeRTOS/Source/portable/MemMang/heap_4.c ****  * Copyright (C) 2017 Amazon.com, Inc. or its affiliates.  All Rights Reserved.
   4:/mnt/c/Users/Daniel/Documents/stm/ThirdParty/nucleo207/Middlewares/Third_Party/FreeRTOS/Source/portable/MemMang/heap_4.c ****  *
   5:/mnt/c/Users/Daniel/Documents/stm/ThirdParty/nucleo207/Middlewares/Third_Party/FreeRTOS/Source/portable/MemMang/heap_4.c ****  * Permission is hereby granted, free of charge, to any person obtaining a copy of
   6:/mnt/c/Users/Daniel/Documents/stm/ThirdParty/nucleo207/Middlewares/Third_Party/FreeRTOS/Source/portable/MemMang/heap_4.c ****  * this software and associated documentation files (the "Software"), to deal in
   7:/mnt/c/Users/Daniel/Documents/stm/ThirdParty/nucleo207/Middlewares/Third_Party/FreeRTOS/Source/portable/MemMang/heap_4.c ****  * the Software without restriction, including without limitation the rights to
   8:/mnt/c/Users/Daniel/Documents/stm/ThirdParty/nucleo207/Middlewares/Third_Party/FreeRTOS/Source/portable/MemMang/heap_4.c ****  * use, copy, modify, merge, publish, distribute, sublicense, and/or sell copies of
   9:/mnt/c/Users/Daniel/Documents/stm/ThirdParty/nucleo207/Middlewares/Third_Party/FreeRTOS/Source/portable/MemMang/heap_4.c ****  * the Software, and to permit persons to whom the Software is furnished to do so,
  10:/mnt/c/Users/Daniel/Documents/stm/ThirdParty/nucleo207/Middlewares/Third_Party/FreeRTOS/Source/portable/MemMang/heap_4.c ****  * subject to the following conditions:
  11:/mnt/c/Users/Daniel/Documents/stm/ThirdParty/nucleo207/Middlewares/Third_Party/FreeRTOS/Source/portable/MemMang/heap_4.c ****  *
  12:/mnt/c/Users/Daniel/Documents/stm/ThirdParty/nucleo207/Middlewares/Third_Party/FreeRTOS/Source/portable/MemMang/heap_4.c ****  * The above copyright notice and this permission notice shall be included in all
  13:/mnt/c/Users/Daniel/Documents/stm/ThirdParty/nucleo207/Middlewares/Third_Party/FreeRTOS/Source/portable/MemMang/heap_4.c ****  * copies or substantial portions of the Software.
  14:/mnt/c/Users/Daniel/Documents/stm/ThirdParty/nucleo207/Middlewares/Third_Party/FreeRTOS/Source/portable/MemMang/heap_4.c ****  *
  15:/mnt/c/Users/Daniel/Documents/stm/ThirdParty/nucleo207/Middlewares/Third_Party/FreeRTOS/Source/portable/MemMang/heap_4.c ****  * THE SOFTWARE IS PROVIDED "AS IS", WITHOUT WARRANTY OF ANY KIND, EXPRESS OR
  16:/mnt/c/Users/Daniel/Documents/stm/ThirdParty/nucleo207/Middlewares/Third_Party/FreeRTOS/Source/portable/MemMang/heap_4.c ****  * IMPLIED, INCLUDING BUT NOT LIMITED TO THE WARRANTIES OF MERCHANTABILITY, FITNESS
  17:/mnt/c/Users/Daniel/Documents/stm/ThirdParty/nucleo207/Middlewares/Third_Party/FreeRTOS/Source/portable/MemMang/heap_4.c ****  * FOR A PARTICULAR PURPOSE AND NONINFRINGEMENT. IN NO EVENT SHALL THE AUTHORS OR
  18:/mnt/c/Users/Daniel/Documents/stm/ThirdParty/nucleo207/Middlewares/Third_Party/FreeRTOS/Source/portable/MemMang/heap_4.c ****  * COPYRIGHT HOLDERS BE LIABLE FOR ANY CLAIM, DAMAGES OR OTHER LIABILITY, WHETHER
  19:/mnt/c/Users/Daniel/Documents/stm/ThirdParty/nucleo207/Middlewares/Third_Party/FreeRTOS/Source/portable/MemMang/heap_4.c ****  * IN AN ACTION OF CONTRACT, TORT OR OTHERWISE, ARISING FROM, OUT OF OR IN
  20:/mnt/c/Users/Daniel/Documents/stm/ThirdParty/nucleo207/Middlewares/Third_Party/FreeRTOS/Source/portable/MemMang/heap_4.c ****  * CONNECTION WITH THE SOFTWARE OR THE USE OR OTHER DEALINGS IN THE SOFTWARE.
  21:/mnt/c/Users/Daniel/Documents/stm/ThirdParty/nucleo207/Middlewares/Third_Party/FreeRTOS/Source/portable/MemMang/heap_4.c ****  *
  22:/mnt/c/Users/Daniel/Documents/stm/ThirdParty/nucleo207/Middlewares/Third_Party/FreeRTOS/Source/portable/MemMang/heap_4.c ****  * http://www.FreeRTOS.org
  23:/mnt/c/Users/Daniel/Documents/stm/ThirdParty/nucleo207/Middlewares/Third_Party/FreeRTOS/Source/portable/MemMang/heap_4.c ****  * http://aws.amazon.com/freertos
  24:/mnt/c/Users/Daniel/Documents/stm/ThirdParty/nucleo207/Middlewares/Third_Party/FreeRTOS/Source/portable/MemMang/heap_4.c ****  *
  25:/mnt/c/Users/Daniel/Documents/stm/ThirdParty/nucleo207/Middlewares/Third_Party/FreeRTOS/Source/portable/MemMang/heap_4.c ****  * 1 tab == 4 spaces!
  26:/mnt/c/Users/Daniel/Documents/stm/ThirdParty/nucleo207/Middlewares/Third_Party/FreeRTOS/Source/portable/MemMang/heap_4.c ****  */
  27:/mnt/c/Users/Daniel/Documents/stm/ThirdParty/nucleo207/Middlewares/Third_Party/FreeRTOS/Source/portable/MemMang/heap_4.c **** 
  28:/mnt/c/Users/Daniel/Documents/stm/ThirdParty/nucleo207/Middlewares/Third_Party/FreeRTOS/Source/portable/MemMang/heap_4.c **** /*
  29:/mnt/c/Users/Daniel/Documents/stm/ThirdParty/nucleo207/Middlewares/Third_Party/FreeRTOS/Source/portable/MemMang/heap_4.c ****  * A sample implementation of pvPortMalloc() and vPortFree() that combines
  30:/mnt/c/Users/Daniel/Documents/stm/ThirdParty/nucleo207/Middlewares/Third_Party/FreeRTOS/Source/portable/MemMang/heap_4.c ****  * (coalescences) adjacent memory blocks as they are freed, and in so doing
  31:/mnt/c/Users/Daniel/Documents/stm/ThirdParty/nucleo207/Middlewares/Third_Party/FreeRTOS/Source/portable/MemMang/heap_4.c ****  * limits memory fragmentation.
  32:/mnt/c/Users/Daniel/Documents/stm/ThirdParty/nucleo207/Middlewares/Third_Party/FreeRTOS/Source/portable/MemMang/heap_4.c ****  *
  33:/mnt/c/Users/Daniel/Documents/stm/ThirdParty/nucleo207/Middlewares/Third_Party/FreeRTOS/Source/portable/MemMang/heap_4.c ****  * See heap_1.c, heap_2.c and heap_3.c for alternative implementations, and the
  34:/mnt/c/Users/Daniel/Documents/stm/ThirdParty/nucleo207/Middlewares/Third_Party/FreeRTOS/Source/portable/MemMang/heap_4.c ****  * memory management pages of http://www.FreeRTOS.org for more information.
ARM GAS  /tmp/ccI1HsHp.s 			page 2


  35:/mnt/c/Users/Daniel/Documents/stm/ThirdParty/nucleo207/Middlewares/Third_Party/FreeRTOS/Source/portable/MemMang/heap_4.c ****  */
  36:/mnt/c/Users/Daniel/Documents/stm/ThirdParty/nucleo207/Middlewares/Third_Party/FreeRTOS/Source/portable/MemMang/heap_4.c **** #include <stdlib.h>
  37:/mnt/c/Users/Daniel/Documents/stm/ThirdParty/nucleo207/Middlewares/Third_Party/FreeRTOS/Source/portable/MemMang/heap_4.c **** 
  38:/mnt/c/Users/Daniel/Documents/stm/ThirdParty/nucleo207/Middlewares/Third_Party/FreeRTOS/Source/portable/MemMang/heap_4.c **** /* Defining MPU_WRAPPERS_INCLUDED_FROM_API_FILE prevents task.h from redefining
  39:/mnt/c/Users/Daniel/Documents/stm/ThirdParty/nucleo207/Middlewares/Third_Party/FreeRTOS/Source/portable/MemMang/heap_4.c **** all the API functions to use the MPU wrappers.  That should only be done when
  40:/mnt/c/Users/Daniel/Documents/stm/ThirdParty/nucleo207/Middlewares/Third_Party/FreeRTOS/Source/portable/MemMang/heap_4.c **** task.h is included from an application file. */
  41:/mnt/c/Users/Daniel/Documents/stm/ThirdParty/nucleo207/Middlewares/Third_Party/FreeRTOS/Source/portable/MemMang/heap_4.c **** #define MPU_WRAPPERS_INCLUDED_FROM_API_FILE
  42:/mnt/c/Users/Daniel/Documents/stm/ThirdParty/nucleo207/Middlewares/Third_Party/FreeRTOS/Source/portable/MemMang/heap_4.c **** 
  43:/mnt/c/Users/Daniel/Documents/stm/ThirdParty/nucleo207/Middlewares/Third_Party/FreeRTOS/Source/portable/MemMang/heap_4.c **** #include "FreeRTOS.h"
  44:/mnt/c/Users/Daniel/Documents/stm/ThirdParty/nucleo207/Middlewares/Third_Party/FreeRTOS/Source/portable/MemMang/heap_4.c **** #include "task.h"
  45:/mnt/c/Users/Daniel/Documents/stm/ThirdParty/nucleo207/Middlewares/Third_Party/FreeRTOS/Source/portable/MemMang/heap_4.c **** 
  46:/mnt/c/Users/Daniel/Documents/stm/ThirdParty/nucleo207/Middlewares/Third_Party/FreeRTOS/Source/portable/MemMang/heap_4.c **** #undef MPU_WRAPPERS_INCLUDED_FROM_API_FILE
  47:/mnt/c/Users/Daniel/Documents/stm/ThirdParty/nucleo207/Middlewares/Third_Party/FreeRTOS/Source/portable/MemMang/heap_4.c **** 
  48:/mnt/c/Users/Daniel/Documents/stm/ThirdParty/nucleo207/Middlewares/Third_Party/FreeRTOS/Source/portable/MemMang/heap_4.c **** #if( configSUPPORT_DYNAMIC_ALLOCATION == 0 )
  49:/mnt/c/Users/Daniel/Documents/stm/ThirdParty/nucleo207/Middlewares/Third_Party/FreeRTOS/Source/portable/MemMang/heap_4.c **** 	#error This file must not be used if configSUPPORT_DYNAMIC_ALLOCATION is 0
  50:/mnt/c/Users/Daniel/Documents/stm/ThirdParty/nucleo207/Middlewares/Third_Party/FreeRTOS/Source/portable/MemMang/heap_4.c **** #endif
  51:/mnt/c/Users/Daniel/Documents/stm/ThirdParty/nucleo207/Middlewares/Third_Party/FreeRTOS/Source/portable/MemMang/heap_4.c **** 
  52:/mnt/c/Users/Daniel/Documents/stm/ThirdParty/nucleo207/Middlewares/Third_Party/FreeRTOS/Source/portable/MemMang/heap_4.c **** /* Block sizes must not get too small. */
  53:/mnt/c/Users/Daniel/Documents/stm/ThirdParty/nucleo207/Middlewares/Third_Party/FreeRTOS/Source/portable/MemMang/heap_4.c **** #define heapMINIMUM_BLOCK_SIZE	( ( size_t ) ( xHeapStructSize << 1 ) )
  54:/mnt/c/Users/Daniel/Documents/stm/ThirdParty/nucleo207/Middlewares/Third_Party/FreeRTOS/Source/portable/MemMang/heap_4.c **** 
  55:/mnt/c/Users/Daniel/Documents/stm/ThirdParty/nucleo207/Middlewares/Third_Party/FreeRTOS/Source/portable/MemMang/heap_4.c **** /* Assumes 8bit bytes! */
  56:/mnt/c/Users/Daniel/Documents/stm/ThirdParty/nucleo207/Middlewares/Third_Party/FreeRTOS/Source/portable/MemMang/heap_4.c **** #define heapBITS_PER_BYTE		( ( size_t ) 8 )
  57:/mnt/c/Users/Daniel/Documents/stm/ThirdParty/nucleo207/Middlewares/Third_Party/FreeRTOS/Source/portable/MemMang/heap_4.c **** 
  58:/mnt/c/Users/Daniel/Documents/stm/ThirdParty/nucleo207/Middlewares/Third_Party/FreeRTOS/Source/portable/MemMang/heap_4.c **** /* Allocate the memory for the heap. */
  59:/mnt/c/Users/Daniel/Documents/stm/ThirdParty/nucleo207/Middlewares/Third_Party/FreeRTOS/Source/portable/MemMang/heap_4.c **** #if( configAPPLICATION_ALLOCATED_HEAP == 1 )
  60:/mnt/c/Users/Daniel/Documents/stm/ThirdParty/nucleo207/Middlewares/Third_Party/FreeRTOS/Source/portable/MemMang/heap_4.c **** 	/* The application writer has already defined the array used for the RTOS
  61:/mnt/c/Users/Daniel/Documents/stm/ThirdParty/nucleo207/Middlewares/Third_Party/FreeRTOS/Source/portable/MemMang/heap_4.c **** 	heap - probably so it can be placed in a special segment or address. */
  62:/mnt/c/Users/Daniel/Documents/stm/ThirdParty/nucleo207/Middlewares/Third_Party/FreeRTOS/Source/portable/MemMang/heap_4.c **** 	extern uint8_t ucHeap[ configTOTAL_HEAP_SIZE ];
  63:/mnt/c/Users/Daniel/Documents/stm/ThirdParty/nucleo207/Middlewares/Third_Party/FreeRTOS/Source/portable/MemMang/heap_4.c **** #else
  64:/mnt/c/Users/Daniel/Documents/stm/ThirdParty/nucleo207/Middlewares/Third_Party/FreeRTOS/Source/portable/MemMang/heap_4.c **** 	static uint8_t ucHeap[ configTOTAL_HEAP_SIZE ];
  65:/mnt/c/Users/Daniel/Documents/stm/ThirdParty/nucleo207/Middlewares/Third_Party/FreeRTOS/Source/portable/MemMang/heap_4.c **** #endif /* configAPPLICATION_ALLOCATED_HEAP */
  66:/mnt/c/Users/Daniel/Documents/stm/ThirdParty/nucleo207/Middlewares/Third_Party/FreeRTOS/Source/portable/MemMang/heap_4.c **** 
  67:/mnt/c/Users/Daniel/Documents/stm/ThirdParty/nucleo207/Middlewares/Third_Party/FreeRTOS/Source/portable/MemMang/heap_4.c **** /* Define the linked list structure.  This is used to link free blocks in order
  68:/mnt/c/Users/Daniel/Documents/stm/ThirdParty/nucleo207/Middlewares/Third_Party/FreeRTOS/Source/portable/MemMang/heap_4.c **** of their memory address. */
  69:/mnt/c/Users/Daniel/Documents/stm/ThirdParty/nucleo207/Middlewares/Third_Party/FreeRTOS/Source/portable/MemMang/heap_4.c **** typedef struct A_BLOCK_LINK
  70:/mnt/c/Users/Daniel/Documents/stm/ThirdParty/nucleo207/Middlewares/Third_Party/FreeRTOS/Source/portable/MemMang/heap_4.c **** {
  71:/mnt/c/Users/Daniel/Documents/stm/ThirdParty/nucleo207/Middlewares/Third_Party/FreeRTOS/Source/portable/MemMang/heap_4.c **** 	struct A_BLOCK_LINK *pxNextFreeBlock;	/*<< The next free block in the list. */
  72:/mnt/c/Users/Daniel/Documents/stm/ThirdParty/nucleo207/Middlewares/Third_Party/FreeRTOS/Source/portable/MemMang/heap_4.c **** 	size_t xBlockSize;						/*<< The size of the free block. */
  73:/mnt/c/Users/Daniel/Documents/stm/ThirdParty/nucleo207/Middlewares/Third_Party/FreeRTOS/Source/portable/MemMang/heap_4.c **** } BlockLink_t;
  74:/mnt/c/Users/Daniel/Documents/stm/ThirdParty/nucleo207/Middlewares/Third_Party/FreeRTOS/Source/portable/MemMang/heap_4.c **** 
  75:/mnt/c/Users/Daniel/Documents/stm/ThirdParty/nucleo207/Middlewares/Third_Party/FreeRTOS/Source/portable/MemMang/heap_4.c **** /*-----------------------------------------------------------*/
  76:/mnt/c/Users/Daniel/Documents/stm/ThirdParty/nucleo207/Middlewares/Third_Party/FreeRTOS/Source/portable/MemMang/heap_4.c **** 
  77:/mnt/c/Users/Daniel/Documents/stm/ThirdParty/nucleo207/Middlewares/Third_Party/FreeRTOS/Source/portable/MemMang/heap_4.c **** /*
  78:/mnt/c/Users/Daniel/Documents/stm/ThirdParty/nucleo207/Middlewares/Third_Party/FreeRTOS/Source/portable/MemMang/heap_4.c ****  * Inserts a block of memory that is being freed into the correct position in
  79:/mnt/c/Users/Daniel/Documents/stm/ThirdParty/nucleo207/Middlewares/Third_Party/FreeRTOS/Source/portable/MemMang/heap_4.c ****  * the list of free memory blocks.  The block being freed will be merged with
  80:/mnt/c/Users/Daniel/Documents/stm/ThirdParty/nucleo207/Middlewares/Third_Party/FreeRTOS/Source/portable/MemMang/heap_4.c ****  * the block in front it and/or the block behind it if the memory blocks are
  81:/mnt/c/Users/Daniel/Documents/stm/ThirdParty/nucleo207/Middlewares/Third_Party/FreeRTOS/Source/portable/MemMang/heap_4.c ****  * adjacent to each other.
  82:/mnt/c/Users/Daniel/Documents/stm/ThirdParty/nucleo207/Middlewares/Third_Party/FreeRTOS/Source/portable/MemMang/heap_4.c ****  */
  83:/mnt/c/Users/Daniel/Documents/stm/ThirdParty/nucleo207/Middlewares/Third_Party/FreeRTOS/Source/portable/MemMang/heap_4.c **** static void prvInsertBlockIntoFreeList( BlockLink_t *pxBlockToInsert );
  84:/mnt/c/Users/Daniel/Documents/stm/ThirdParty/nucleo207/Middlewares/Third_Party/FreeRTOS/Source/portable/MemMang/heap_4.c **** 
  85:/mnt/c/Users/Daniel/Documents/stm/ThirdParty/nucleo207/Middlewares/Third_Party/FreeRTOS/Source/portable/MemMang/heap_4.c **** /*
  86:/mnt/c/Users/Daniel/Documents/stm/ThirdParty/nucleo207/Middlewares/Third_Party/FreeRTOS/Source/portable/MemMang/heap_4.c ****  * Called automatically to setup the required heap structures the first time
  87:/mnt/c/Users/Daniel/Documents/stm/ThirdParty/nucleo207/Middlewares/Third_Party/FreeRTOS/Source/portable/MemMang/heap_4.c ****  * pvPortMalloc() is called.
  88:/mnt/c/Users/Daniel/Documents/stm/ThirdParty/nucleo207/Middlewares/Third_Party/FreeRTOS/Source/portable/MemMang/heap_4.c ****  */
  89:/mnt/c/Users/Daniel/Documents/stm/ThirdParty/nucleo207/Middlewares/Third_Party/FreeRTOS/Source/portable/MemMang/heap_4.c **** static void prvHeapInit( void );
  90:/mnt/c/Users/Daniel/Documents/stm/ThirdParty/nucleo207/Middlewares/Third_Party/FreeRTOS/Source/portable/MemMang/heap_4.c **** 
  91:/mnt/c/Users/Daniel/Documents/stm/ThirdParty/nucleo207/Middlewares/Third_Party/FreeRTOS/Source/portable/MemMang/heap_4.c **** /*-----------------------------------------------------------*/
ARM GAS  /tmp/ccI1HsHp.s 			page 3


  92:/mnt/c/Users/Daniel/Documents/stm/ThirdParty/nucleo207/Middlewares/Third_Party/FreeRTOS/Source/portable/MemMang/heap_4.c **** 
  93:/mnt/c/Users/Daniel/Documents/stm/ThirdParty/nucleo207/Middlewares/Third_Party/FreeRTOS/Source/portable/MemMang/heap_4.c **** /* The size of the structure placed at the beginning of each allocated memory
  94:/mnt/c/Users/Daniel/Documents/stm/ThirdParty/nucleo207/Middlewares/Third_Party/FreeRTOS/Source/portable/MemMang/heap_4.c **** block must by correctly byte aligned. */
  95:/mnt/c/Users/Daniel/Documents/stm/ThirdParty/nucleo207/Middlewares/Third_Party/FreeRTOS/Source/portable/MemMang/heap_4.c **** static const size_t xHeapStructSize	= ( sizeof( BlockLink_t ) + ( ( size_t ) ( portBYTE_ALIGNMENT -
  96:/mnt/c/Users/Daniel/Documents/stm/ThirdParty/nucleo207/Middlewares/Third_Party/FreeRTOS/Source/portable/MemMang/heap_4.c **** 
  97:/mnt/c/Users/Daniel/Documents/stm/ThirdParty/nucleo207/Middlewares/Third_Party/FreeRTOS/Source/portable/MemMang/heap_4.c **** /* Create a couple of list links to mark the start and end of the list. */
  98:/mnt/c/Users/Daniel/Documents/stm/ThirdParty/nucleo207/Middlewares/Third_Party/FreeRTOS/Source/portable/MemMang/heap_4.c **** static BlockLink_t xStart, *pxEnd = NULL;
  99:/mnt/c/Users/Daniel/Documents/stm/ThirdParty/nucleo207/Middlewares/Third_Party/FreeRTOS/Source/portable/MemMang/heap_4.c **** 
 100:/mnt/c/Users/Daniel/Documents/stm/ThirdParty/nucleo207/Middlewares/Third_Party/FreeRTOS/Source/portable/MemMang/heap_4.c **** /* Keeps track of the number of free bytes remaining, but says nothing about
 101:/mnt/c/Users/Daniel/Documents/stm/ThirdParty/nucleo207/Middlewares/Third_Party/FreeRTOS/Source/portable/MemMang/heap_4.c **** fragmentation. */
 102:/mnt/c/Users/Daniel/Documents/stm/ThirdParty/nucleo207/Middlewares/Third_Party/FreeRTOS/Source/portable/MemMang/heap_4.c **** static size_t xFreeBytesRemaining = 0U;
 103:/mnt/c/Users/Daniel/Documents/stm/ThirdParty/nucleo207/Middlewares/Third_Party/FreeRTOS/Source/portable/MemMang/heap_4.c **** static size_t xMinimumEverFreeBytesRemaining = 0U;
 104:/mnt/c/Users/Daniel/Documents/stm/ThirdParty/nucleo207/Middlewares/Third_Party/FreeRTOS/Source/portable/MemMang/heap_4.c **** 
 105:/mnt/c/Users/Daniel/Documents/stm/ThirdParty/nucleo207/Middlewares/Third_Party/FreeRTOS/Source/portable/MemMang/heap_4.c **** /* Gets set to the top bit of an size_t type.  When this bit in the xBlockSize
 106:/mnt/c/Users/Daniel/Documents/stm/ThirdParty/nucleo207/Middlewares/Third_Party/FreeRTOS/Source/portable/MemMang/heap_4.c **** member of an BlockLink_t structure is set then the block belongs to the
 107:/mnt/c/Users/Daniel/Documents/stm/ThirdParty/nucleo207/Middlewares/Third_Party/FreeRTOS/Source/portable/MemMang/heap_4.c **** application.  When the bit is free the block is still part of the free heap
 108:/mnt/c/Users/Daniel/Documents/stm/ThirdParty/nucleo207/Middlewares/Third_Party/FreeRTOS/Source/portable/MemMang/heap_4.c **** space. */
 109:/mnt/c/Users/Daniel/Documents/stm/ThirdParty/nucleo207/Middlewares/Third_Party/FreeRTOS/Source/portable/MemMang/heap_4.c **** static size_t xBlockAllocatedBit = 0;
 110:/mnt/c/Users/Daniel/Documents/stm/ThirdParty/nucleo207/Middlewares/Third_Party/FreeRTOS/Source/portable/MemMang/heap_4.c **** 
 111:/mnt/c/Users/Daniel/Documents/stm/ThirdParty/nucleo207/Middlewares/Third_Party/FreeRTOS/Source/portable/MemMang/heap_4.c **** /*-----------------------------------------------------------*/
 112:/mnt/c/Users/Daniel/Documents/stm/ThirdParty/nucleo207/Middlewares/Third_Party/FreeRTOS/Source/portable/MemMang/heap_4.c **** 
 113:/mnt/c/Users/Daniel/Documents/stm/ThirdParty/nucleo207/Middlewares/Third_Party/FreeRTOS/Source/portable/MemMang/heap_4.c **** void *pvPortMalloc( size_t xWantedSize )
 114:/mnt/c/Users/Daniel/Documents/stm/ThirdParty/nucleo207/Middlewares/Third_Party/FreeRTOS/Source/portable/MemMang/heap_4.c **** {
 115:/mnt/c/Users/Daniel/Documents/stm/ThirdParty/nucleo207/Middlewares/Third_Party/FreeRTOS/Source/portable/MemMang/heap_4.c **** BlockLink_t *pxBlock, *pxPreviousBlock, *pxNewBlockLink;
 116:/mnt/c/Users/Daniel/Documents/stm/ThirdParty/nucleo207/Middlewares/Third_Party/FreeRTOS/Source/portable/MemMang/heap_4.c **** void *pvReturn = NULL;
 117:/mnt/c/Users/Daniel/Documents/stm/ThirdParty/nucleo207/Middlewares/Third_Party/FreeRTOS/Source/portable/MemMang/heap_4.c **** 
 118:/mnt/c/Users/Daniel/Documents/stm/ThirdParty/nucleo207/Middlewares/Third_Party/FreeRTOS/Source/portable/MemMang/heap_4.c **** 	vTaskSuspendAll();
 119:/mnt/c/Users/Daniel/Documents/stm/ThirdParty/nucleo207/Middlewares/Third_Party/FreeRTOS/Source/portable/MemMang/heap_4.c **** 	{
 120:/mnt/c/Users/Daniel/Documents/stm/ThirdParty/nucleo207/Middlewares/Third_Party/FreeRTOS/Source/portable/MemMang/heap_4.c **** 		/* If this is the first call to malloc then the heap will require
 121:/mnt/c/Users/Daniel/Documents/stm/ThirdParty/nucleo207/Middlewares/Third_Party/FreeRTOS/Source/portable/MemMang/heap_4.c **** 		initialisation to setup the list of free blocks. */
 122:/mnt/c/Users/Daniel/Documents/stm/ThirdParty/nucleo207/Middlewares/Third_Party/FreeRTOS/Source/portable/MemMang/heap_4.c **** 		if( pxEnd == NULL )
 123:/mnt/c/Users/Daniel/Documents/stm/ThirdParty/nucleo207/Middlewares/Third_Party/FreeRTOS/Source/portable/MemMang/heap_4.c **** 		{
 124:/mnt/c/Users/Daniel/Documents/stm/ThirdParty/nucleo207/Middlewares/Third_Party/FreeRTOS/Source/portable/MemMang/heap_4.c **** 			prvHeapInit();
 125:/mnt/c/Users/Daniel/Documents/stm/ThirdParty/nucleo207/Middlewares/Third_Party/FreeRTOS/Source/portable/MemMang/heap_4.c **** 		}
 126:/mnt/c/Users/Daniel/Documents/stm/ThirdParty/nucleo207/Middlewares/Third_Party/FreeRTOS/Source/portable/MemMang/heap_4.c **** 		else
 127:/mnt/c/Users/Daniel/Documents/stm/ThirdParty/nucleo207/Middlewares/Third_Party/FreeRTOS/Source/portable/MemMang/heap_4.c **** 		{
 128:/mnt/c/Users/Daniel/Documents/stm/ThirdParty/nucleo207/Middlewares/Third_Party/FreeRTOS/Source/portable/MemMang/heap_4.c **** 			mtCOVERAGE_TEST_MARKER();
 129:/mnt/c/Users/Daniel/Documents/stm/ThirdParty/nucleo207/Middlewares/Third_Party/FreeRTOS/Source/portable/MemMang/heap_4.c **** 		}
 130:/mnt/c/Users/Daniel/Documents/stm/ThirdParty/nucleo207/Middlewares/Third_Party/FreeRTOS/Source/portable/MemMang/heap_4.c **** 
 131:/mnt/c/Users/Daniel/Documents/stm/ThirdParty/nucleo207/Middlewares/Third_Party/FreeRTOS/Source/portable/MemMang/heap_4.c **** 		/* Check the requested block size is not so large that the top bit is
 132:/mnt/c/Users/Daniel/Documents/stm/ThirdParty/nucleo207/Middlewares/Third_Party/FreeRTOS/Source/portable/MemMang/heap_4.c **** 		set.  The top bit of the block size member of the BlockLink_t structure
 133:/mnt/c/Users/Daniel/Documents/stm/ThirdParty/nucleo207/Middlewares/Third_Party/FreeRTOS/Source/portable/MemMang/heap_4.c **** 		is used to determine who owns the block - the application or the
 134:/mnt/c/Users/Daniel/Documents/stm/ThirdParty/nucleo207/Middlewares/Third_Party/FreeRTOS/Source/portable/MemMang/heap_4.c **** 		kernel, so it must be free. */
 135:/mnt/c/Users/Daniel/Documents/stm/ThirdParty/nucleo207/Middlewares/Third_Party/FreeRTOS/Source/portable/MemMang/heap_4.c **** 		if( ( xWantedSize & xBlockAllocatedBit ) == 0 )
 136:/mnt/c/Users/Daniel/Documents/stm/ThirdParty/nucleo207/Middlewares/Third_Party/FreeRTOS/Source/portable/MemMang/heap_4.c **** 		{
 137:/mnt/c/Users/Daniel/Documents/stm/ThirdParty/nucleo207/Middlewares/Third_Party/FreeRTOS/Source/portable/MemMang/heap_4.c **** 			/* The wanted size is increased so it can contain a BlockLink_t
 138:/mnt/c/Users/Daniel/Documents/stm/ThirdParty/nucleo207/Middlewares/Third_Party/FreeRTOS/Source/portable/MemMang/heap_4.c **** 			structure in addition to the requested amount of bytes. */
 139:/mnt/c/Users/Daniel/Documents/stm/ThirdParty/nucleo207/Middlewares/Third_Party/FreeRTOS/Source/portable/MemMang/heap_4.c **** 			if( xWantedSize > 0 )
 140:/mnt/c/Users/Daniel/Documents/stm/ThirdParty/nucleo207/Middlewares/Third_Party/FreeRTOS/Source/portable/MemMang/heap_4.c **** 			{
 141:/mnt/c/Users/Daniel/Documents/stm/ThirdParty/nucleo207/Middlewares/Third_Party/FreeRTOS/Source/portable/MemMang/heap_4.c **** 				xWantedSize += xHeapStructSize;
 142:/mnt/c/Users/Daniel/Documents/stm/ThirdParty/nucleo207/Middlewares/Third_Party/FreeRTOS/Source/portable/MemMang/heap_4.c **** 
 143:/mnt/c/Users/Daniel/Documents/stm/ThirdParty/nucleo207/Middlewares/Third_Party/FreeRTOS/Source/portable/MemMang/heap_4.c **** 				/* Ensure that blocks are always aligned to the required number
 144:/mnt/c/Users/Daniel/Documents/stm/ThirdParty/nucleo207/Middlewares/Third_Party/FreeRTOS/Source/portable/MemMang/heap_4.c **** 				of bytes. */
 145:/mnt/c/Users/Daniel/Documents/stm/ThirdParty/nucleo207/Middlewares/Third_Party/FreeRTOS/Source/portable/MemMang/heap_4.c **** 				if( ( xWantedSize & portBYTE_ALIGNMENT_MASK ) != 0x00 )
 146:/mnt/c/Users/Daniel/Documents/stm/ThirdParty/nucleo207/Middlewares/Third_Party/FreeRTOS/Source/portable/MemMang/heap_4.c **** 				{
 147:/mnt/c/Users/Daniel/Documents/stm/ThirdParty/nucleo207/Middlewares/Third_Party/FreeRTOS/Source/portable/MemMang/heap_4.c **** 					/* Byte alignment required. */
 148:/mnt/c/Users/Daniel/Documents/stm/ThirdParty/nucleo207/Middlewares/Third_Party/FreeRTOS/Source/portable/MemMang/heap_4.c **** 					xWantedSize += ( portBYTE_ALIGNMENT - ( xWantedSize & portBYTE_ALIGNMENT_MASK ) );
ARM GAS  /tmp/ccI1HsHp.s 			page 4


 149:/mnt/c/Users/Daniel/Documents/stm/ThirdParty/nucleo207/Middlewares/Third_Party/FreeRTOS/Source/portable/MemMang/heap_4.c **** 					configASSERT( ( xWantedSize & portBYTE_ALIGNMENT_MASK ) == 0 );
 150:/mnt/c/Users/Daniel/Documents/stm/ThirdParty/nucleo207/Middlewares/Third_Party/FreeRTOS/Source/portable/MemMang/heap_4.c **** 				}
 151:/mnt/c/Users/Daniel/Documents/stm/ThirdParty/nucleo207/Middlewares/Third_Party/FreeRTOS/Source/portable/MemMang/heap_4.c **** 				else
 152:/mnt/c/Users/Daniel/Documents/stm/ThirdParty/nucleo207/Middlewares/Third_Party/FreeRTOS/Source/portable/MemMang/heap_4.c **** 				{
 153:/mnt/c/Users/Daniel/Documents/stm/ThirdParty/nucleo207/Middlewares/Third_Party/FreeRTOS/Source/portable/MemMang/heap_4.c **** 					mtCOVERAGE_TEST_MARKER();
 154:/mnt/c/Users/Daniel/Documents/stm/ThirdParty/nucleo207/Middlewares/Third_Party/FreeRTOS/Source/portable/MemMang/heap_4.c **** 				}
 155:/mnt/c/Users/Daniel/Documents/stm/ThirdParty/nucleo207/Middlewares/Third_Party/FreeRTOS/Source/portable/MemMang/heap_4.c **** 			}
 156:/mnt/c/Users/Daniel/Documents/stm/ThirdParty/nucleo207/Middlewares/Third_Party/FreeRTOS/Source/portable/MemMang/heap_4.c **** 			else
 157:/mnt/c/Users/Daniel/Documents/stm/ThirdParty/nucleo207/Middlewares/Third_Party/FreeRTOS/Source/portable/MemMang/heap_4.c **** 			{
 158:/mnt/c/Users/Daniel/Documents/stm/ThirdParty/nucleo207/Middlewares/Third_Party/FreeRTOS/Source/portable/MemMang/heap_4.c **** 				mtCOVERAGE_TEST_MARKER();
 159:/mnt/c/Users/Daniel/Documents/stm/ThirdParty/nucleo207/Middlewares/Third_Party/FreeRTOS/Source/portable/MemMang/heap_4.c **** 			}
 160:/mnt/c/Users/Daniel/Documents/stm/ThirdParty/nucleo207/Middlewares/Third_Party/FreeRTOS/Source/portable/MemMang/heap_4.c **** 
 161:/mnt/c/Users/Daniel/Documents/stm/ThirdParty/nucleo207/Middlewares/Third_Party/FreeRTOS/Source/portable/MemMang/heap_4.c **** 			if( ( xWantedSize > 0 ) && ( xWantedSize <= xFreeBytesRemaining ) )
 162:/mnt/c/Users/Daniel/Documents/stm/ThirdParty/nucleo207/Middlewares/Third_Party/FreeRTOS/Source/portable/MemMang/heap_4.c **** 			{
 163:/mnt/c/Users/Daniel/Documents/stm/ThirdParty/nucleo207/Middlewares/Third_Party/FreeRTOS/Source/portable/MemMang/heap_4.c **** 				/* Traverse the list from the start	(lowest address) block until
 164:/mnt/c/Users/Daniel/Documents/stm/ThirdParty/nucleo207/Middlewares/Third_Party/FreeRTOS/Source/portable/MemMang/heap_4.c **** 				one	of adequate size is found. */
 165:/mnt/c/Users/Daniel/Documents/stm/ThirdParty/nucleo207/Middlewares/Third_Party/FreeRTOS/Source/portable/MemMang/heap_4.c **** 				pxPreviousBlock = &xStart;
 166:/mnt/c/Users/Daniel/Documents/stm/ThirdParty/nucleo207/Middlewares/Third_Party/FreeRTOS/Source/portable/MemMang/heap_4.c **** 				pxBlock = xStart.pxNextFreeBlock;
 167:/mnt/c/Users/Daniel/Documents/stm/ThirdParty/nucleo207/Middlewares/Third_Party/FreeRTOS/Source/portable/MemMang/heap_4.c **** 				while( ( pxBlock->xBlockSize < xWantedSize ) && ( pxBlock->pxNextFreeBlock != NULL ) )
 168:/mnt/c/Users/Daniel/Documents/stm/ThirdParty/nucleo207/Middlewares/Third_Party/FreeRTOS/Source/portable/MemMang/heap_4.c **** 				{
 169:/mnt/c/Users/Daniel/Documents/stm/ThirdParty/nucleo207/Middlewares/Third_Party/FreeRTOS/Source/portable/MemMang/heap_4.c **** 					pxPreviousBlock = pxBlock;
 170:/mnt/c/Users/Daniel/Documents/stm/ThirdParty/nucleo207/Middlewares/Third_Party/FreeRTOS/Source/portable/MemMang/heap_4.c **** 					pxBlock = pxBlock->pxNextFreeBlock;
 171:/mnt/c/Users/Daniel/Documents/stm/ThirdParty/nucleo207/Middlewares/Third_Party/FreeRTOS/Source/portable/MemMang/heap_4.c **** 				}
 172:/mnt/c/Users/Daniel/Documents/stm/ThirdParty/nucleo207/Middlewares/Third_Party/FreeRTOS/Source/portable/MemMang/heap_4.c **** 
 173:/mnt/c/Users/Daniel/Documents/stm/ThirdParty/nucleo207/Middlewares/Third_Party/FreeRTOS/Source/portable/MemMang/heap_4.c **** 				/* If the end marker was reached then a block of adequate size
 174:/mnt/c/Users/Daniel/Documents/stm/ThirdParty/nucleo207/Middlewares/Third_Party/FreeRTOS/Source/portable/MemMang/heap_4.c **** 				was	not found. */
 175:/mnt/c/Users/Daniel/Documents/stm/ThirdParty/nucleo207/Middlewares/Third_Party/FreeRTOS/Source/portable/MemMang/heap_4.c **** 				if( pxBlock != pxEnd )
 176:/mnt/c/Users/Daniel/Documents/stm/ThirdParty/nucleo207/Middlewares/Third_Party/FreeRTOS/Source/portable/MemMang/heap_4.c **** 				{
 177:/mnt/c/Users/Daniel/Documents/stm/ThirdParty/nucleo207/Middlewares/Third_Party/FreeRTOS/Source/portable/MemMang/heap_4.c **** 					/* Return the memory space pointed to - jumping over the
 178:/mnt/c/Users/Daniel/Documents/stm/ThirdParty/nucleo207/Middlewares/Third_Party/FreeRTOS/Source/portable/MemMang/heap_4.c **** 					BlockLink_t structure at its start. */
 179:/mnt/c/Users/Daniel/Documents/stm/ThirdParty/nucleo207/Middlewares/Third_Party/FreeRTOS/Source/portable/MemMang/heap_4.c **** 					pvReturn = ( void * ) ( ( ( uint8_t * ) pxPreviousBlock->pxNextFreeBlock ) + xHeapStructSize )
 180:/mnt/c/Users/Daniel/Documents/stm/ThirdParty/nucleo207/Middlewares/Third_Party/FreeRTOS/Source/portable/MemMang/heap_4.c **** 
 181:/mnt/c/Users/Daniel/Documents/stm/ThirdParty/nucleo207/Middlewares/Third_Party/FreeRTOS/Source/portable/MemMang/heap_4.c **** 					/* This block is being returned for use so must be taken out
 182:/mnt/c/Users/Daniel/Documents/stm/ThirdParty/nucleo207/Middlewares/Third_Party/FreeRTOS/Source/portable/MemMang/heap_4.c **** 					of the list of free blocks. */
 183:/mnt/c/Users/Daniel/Documents/stm/ThirdParty/nucleo207/Middlewares/Third_Party/FreeRTOS/Source/portable/MemMang/heap_4.c **** 					pxPreviousBlock->pxNextFreeBlock = pxBlock->pxNextFreeBlock;
 184:/mnt/c/Users/Daniel/Documents/stm/ThirdParty/nucleo207/Middlewares/Third_Party/FreeRTOS/Source/portable/MemMang/heap_4.c **** 
 185:/mnt/c/Users/Daniel/Documents/stm/ThirdParty/nucleo207/Middlewares/Third_Party/FreeRTOS/Source/portable/MemMang/heap_4.c **** 					/* If the block is larger than required it can be split into
 186:/mnt/c/Users/Daniel/Documents/stm/ThirdParty/nucleo207/Middlewares/Third_Party/FreeRTOS/Source/portable/MemMang/heap_4.c **** 					two. */
 187:/mnt/c/Users/Daniel/Documents/stm/ThirdParty/nucleo207/Middlewares/Third_Party/FreeRTOS/Source/portable/MemMang/heap_4.c **** 					if( ( pxBlock->xBlockSize - xWantedSize ) > heapMINIMUM_BLOCK_SIZE )
 188:/mnt/c/Users/Daniel/Documents/stm/ThirdParty/nucleo207/Middlewares/Third_Party/FreeRTOS/Source/portable/MemMang/heap_4.c **** 					{
 189:/mnt/c/Users/Daniel/Documents/stm/ThirdParty/nucleo207/Middlewares/Third_Party/FreeRTOS/Source/portable/MemMang/heap_4.c **** 						/* This block is to be split into two.  Create a new
 190:/mnt/c/Users/Daniel/Documents/stm/ThirdParty/nucleo207/Middlewares/Third_Party/FreeRTOS/Source/portable/MemMang/heap_4.c **** 						block following the number of bytes requested. The void
 191:/mnt/c/Users/Daniel/Documents/stm/ThirdParty/nucleo207/Middlewares/Third_Party/FreeRTOS/Source/portable/MemMang/heap_4.c **** 						cast is used to prevent byte alignment warnings from the
 192:/mnt/c/Users/Daniel/Documents/stm/ThirdParty/nucleo207/Middlewares/Third_Party/FreeRTOS/Source/portable/MemMang/heap_4.c **** 						compiler. */
 193:/mnt/c/Users/Daniel/Documents/stm/ThirdParty/nucleo207/Middlewares/Third_Party/FreeRTOS/Source/portable/MemMang/heap_4.c **** 						pxNewBlockLink = ( void * ) ( ( ( uint8_t * ) pxBlock ) + xWantedSize );
 194:/mnt/c/Users/Daniel/Documents/stm/ThirdParty/nucleo207/Middlewares/Third_Party/FreeRTOS/Source/portable/MemMang/heap_4.c **** 						configASSERT( ( ( ( size_t ) pxNewBlockLink ) & portBYTE_ALIGNMENT_MASK ) == 0 );
 195:/mnt/c/Users/Daniel/Documents/stm/ThirdParty/nucleo207/Middlewares/Third_Party/FreeRTOS/Source/portable/MemMang/heap_4.c **** 
 196:/mnt/c/Users/Daniel/Documents/stm/ThirdParty/nucleo207/Middlewares/Third_Party/FreeRTOS/Source/portable/MemMang/heap_4.c **** 						/* Calculate the sizes of two blocks split from the
 197:/mnt/c/Users/Daniel/Documents/stm/ThirdParty/nucleo207/Middlewares/Third_Party/FreeRTOS/Source/portable/MemMang/heap_4.c **** 						single block. */
 198:/mnt/c/Users/Daniel/Documents/stm/ThirdParty/nucleo207/Middlewares/Third_Party/FreeRTOS/Source/portable/MemMang/heap_4.c **** 						pxNewBlockLink->xBlockSize = pxBlock->xBlockSize - xWantedSize;
 199:/mnt/c/Users/Daniel/Documents/stm/ThirdParty/nucleo207/Middlewares/Third_Party/FreeRTOS/Source/portable/MemMang/heap_4.c **** 						pxBlock->xBlockSize = xWantedSize;
 200:/mnt/c/Users/Daniel/Documents/stm/ThirdParty/nucleo207/Middlewares/Third_Party/FreeRTOS/Source/portable/MemMang/heap_4.c **** 
 201:/mnt/c/Users/Daniel/Documents/stm/ThirdParty/nucleo207/Middlewares/Third_Party/FreeRTOS/Source/portable/MemMang/heap_4.c **** 						/* Insert the new block into the list of free blocks. */
 202:/mnt/c/Users/Daniel/Documents/stm/ThirdParty/nucleo207/Middlewares/Third_Party/FreeRTOS/Source/portable/MemMang/heap_4.c **** 						prvInsertBlockIntoFreeList( pxNewBlockLink );
 203:/mnt/c/Users/Daniel/Documents/stm/ThirdParty/nucleo207/Middlewares/Third_Party/FreeRTOS/Source/portable/MemMang/heap_4.c **** 					}
 204:/mnt/c/Users/Daniel/Documents/stm/ThirdParty/nucleo207/Middlewares/Third_Party/FreeRTOS/Source/portable/MemMang/heap_4.c **** 					else
 205:/mnt/c/Users/Daniel/Documents/stm/ThirdParty/nucleo207/Middlewares/Third_Party/FreeRTOS/Source/portable/MemMang/heap_4.c **** 					{
ARM GAS  /tmp/ccI1HsHp.s 			page 5


 206:/mnt/c/Users/Daniel/Documents/stm/ThirdParty/nucleo207/Middlewares/Third_Party/FreeRTOS/Source/portable/MemMang/heap_4.c **** 						mtCOVERAGE_TEST_MARKER();
 207:/mnt/c/Users/Daniel/Documents/stm/ThirdParty/nucleo207/Middlewares/Third_Party/FreeRTOS/Source/portable/MemMang/heap_4.c **** 					}
 208:/mnt/c/Users/Daniel/Documents/stm/ThirdParty/nucleo207/Middlewares/Third_Party/FreeRTOS/Source/portable/MemMang/heap_4.c **** 
 209:/mnt/c/Users/Daniel/Documents/stm/ThirdParty/nucleo207/Middlewares/Third_Party/FreeRTOS/Source/portable/MemMang/heap_4.c **** 					xFreeBytesRemaining -= pxBlock->xBlockSize;
 210:/mnt/c/Users/Daniel/Documents/stm/ThirdParty/nucleo207/Middlewares/Third_Party/FreeRTOS/Source/portable/MemMang/heap_4.c **** 
 211:/mnt/c/Users/Daniel/Documents/stm/ThirdParty/nucleo207/Middlewares/Third_Party/FreeRTOS/Source/portable/MemMang/heap_4.c **** 					if( xFreeBytesRemaining < xMinimumEverFreeBytesRemaining )
 212:/mnt/c/Users/Daniel/Documents/stm/ThirdParty/nucleo207/Middlewares/Third_Party/FreeRTOS/Source/portable/MemMang/heap_4.c **** 					{
 213:/mnt/c/Users/Daniel/Documents/stm/ThirdParty/nucleo207/Middlewares/Third_Party/FreeRTOS/Source/portable/MemMang/heap_4.c **** 						xMinimumEverFreeBytesRemaining = xFreeBytesRemaining;
 214:/mnt/c/Users/Daniel/Documents/stm/ThirdParty/nucleo207/Middlewares/Third_Party/FreeRTOS/Source/portable/MemMang/heap_4.c **** 					}
 215:/mnt/c/Users/Daniel/Documents/stm/ThirdParty/nucleo207/Middlewares/Third_Party/FreeRTOS/Source/portable/MemMang/heap_4.c **** 					else
 216:/mnt/c/Users/Daniel/Documents/stm/ThirdParty/nucleo207/Middlewares/Third_Party/FreeRTOS/Source/portable/MemMang/heap_4.c **** 					{
 217:/mnt/c/Users/Daniel/Documents/stm/ThirdParty/nucleo207/Middlewares/Third_Party/FreeRTOS/Source/portable/MemMang/heap_4.c **** 						mtCOVERAGE_TEST_MARKER();
 218:/mnt/c/Users/Daniel/Documents/stm/ThirdParty/nucleo207/Middlewares/Third_Party/FreeRTOS/Source/portable/MemMang/heap_4.c **** 					}
 219:/mnt/c/Users/Daniel/Documents/stm/ThirdParty/nucleo207/Middlewares/Third_Party/FreeRTOS/Source/portable/MemMang/heap_4.c **** 
 220:/mnt/c/Users/Daniel/Documents/stm/ThirdParty/nucleo207/Middlewares/Third_Party/FreeRTOS/Source/portable/MemMang/heap_4.c **** 					/* The block is being returned - it is allocated and owned
 221:/mnt/c/Users/Daniel/Documents/stm/ThirdParty/nucleo207/Middlewares/Third_Party/FreeRTOS/Source/portable/MemMang/heap_4.c **** 					by the application and has no "next" block. */
 222:/mnt/c/Users/Daniel/Documents/stm/ThirdParty/nucleo207/Middlewares/Third_Party/FreeRTOS/Source/portable/MemMang/heap_4.c **** 					pxBlock->xBlockSize |= xBlockAllocatedBit;
 223:/mnt/c/Users/Daniel/Documents/stm/ThirdParty/nucleo207/Middlewares/Third_Party/FreeRTOS/Source/portable/MemMang/heap_4.c **** 					pxBlock->pxNextFreeBlock = NULL;
 224:/mnt/c/Users/Daniel/Documents/stm/ThirdParty/nucleo207/Middlewares/Third_Party/FreeRTOS/Source/portable/MemMang/heap_4.c **** 				}
 225:/mnt/c/Users/Daniel/Documents/stm/ThirdParty/nucleo207/Middlewares/Third_Party/FreeRTOS/Source/portable/MemMang/heap_4.c **** 				else
 226:/mnt/c/Users/Daniel/Documents/stm/ThirdParty/nucleo207/Middlewares/Third_Party/FreeRTOS/Source/portable/MemMang/heap_4.c **** 				{
 227:/mnt/c/Users/Daniel/Documents/stm/ThirdParty/nucleo207/Middlewares/Third_Party/FreeRTOS/Source/portable/MemMang/heap_4.c **** 					mtCOVERAGE_TEST_MARKER();
 228:/mnt/c/Users/Daniel/Documents/stm/ThirdParty/nucleo207/Middlewares/Third_Party/FreeRTOS/Source/portable/MemMang/heap_4.c **** 				}
 229:/mnt/c/Users/Daniel/Documents/stm/ThirdParty/nucleo207/Middlewares/Third_Party/FreeRTOS/Source/portable/MemMang/heap_4.c **** 			}
 230:/mnt/c/Users/Daniel/Documents/stm/ThirdParty/nucleo207/Middlewares/Third_Party/FreeRTOS/Source/portable/MemMang/heap_4.c **** 			else
 231:/mnt/c/Users/Daniel/Documents/stm/ThirdParty/nucleo207/Middlewares/Third_Party/FreeRTOS/Source/portable/MemMang/heap_4.c **** 			{
 232:/mnt/c/Users/Daniel/Documents/stm/ThirdParty/nucleo207/Middlewares/Third_Party/FreeRTOS/Source/portable/MemMang/heap_4.c **** 				mtCOVERAGE_TEST_MARKER();
 233:/mnt/c/Users/Daniel/Documents/stm/ThirdParty/nucleo207/Middlewares/Third_Party/FreeRTOS/Source/portable/MemMang/heap_4.c **** 			}
 234:/mnt/c/Users/Daniel/Documents/stm/ThirdParty/nucleo207/Middlewares/Third_Party/FreeRTOS/Source/portable/MemMang/heap_4.c **** 		}
 235:/mnt/c/Users/Daniel/Documents/stm/ThirdParty/nucleo207/Middlewares/Third_Party/FreeRTOS/Source/portable/MemMang/heap_4.c **** 		else
 236:/mnt/c/Users/Daniel/Documents/stm/ThirdParty/nucleo207/Middlewares/Third_Party/FreeRTOS/Source/portable/MemMang/heap_4.c **** 		{
 237:/mnt/c/Users/Daniel/Documents/stm/ThirdParty/nucleo207/Middlewares/Third_Party/FreeRTOS/Source/portable/MemMang/heap_4.c **** 			mtCOVERAGE_TEST_MARKER();
 238:/mnt/c/Users/Daniel/Documents/stm/ThirdParty/nucleo207/Middlewares/Third_Party/FreeRTOS/Source/portable/MemMang/heap_4.c **** 		}
 239:/mnt/c/Users/Daniel/Documents/stm/ThirdParty/nucleo207/Middlewares/Third_Party/FreeRTOS/Source/portable/MemMang/heap_4.c **** 
 240:/mnt/c/Users/Daniel/Documents/stm/ThirdParty/nucleo207/Middlewares/Third_Party/FreeRTOS/Source/portable/MemMang/heap_4.c **** 		traceMALLOC( pvReturn, xWantedSize );
 241:/mnt/c/Users/Daniel/Documents/stm/ThirdParty/nucleo207/Middlewares/Third_Party/FreeRTOS/Source/portable/MemMang/heap_4.c **** 	}
 242:/mnt/c/Users/Daniel/Documents/stm/ThirdParty/nucleo207/Middlewares/Third_Party/FreeRTOS/Source/portable/MemMang/heap_4.c **** 	( void ) xTaskResumeAll();
 243:/mnt/c/Users/Daniel/Documents/stm/ThirdParty/nucleo207/Middlewares/Third_Party/FreeRTOS/Source/portable/MemMang/heap_4.c **** 
 244:/mnt/c/Users/Daniel/Documents/stm/ThirdParty/nucleo207/Middlewares/Third_Party/FreeRTOS/Source/portable/MemMang/heap_4.c **** 	#if( configUSE_MALLOC_FAILED_HOOK == 1 )
 245:/mnt/c/Users/Daniel/Documents/stm/ThirdParty/nucleo207/Middlewares/Third_Party/FreeRTOS/Source/portable/MemMang/heap_4.c **** 	{
 246:/mnt/c/Users/Daniel/Documents/stm/ThirdParty/nucleo207/Middlewares/Third_Party/FreeRTOS/Source/portable/MemMang/heap_4.c **** 		if( pvReturn == NULL )
 247:/mnt/c/Users/Daniel/Documents/stm/ThirdParty/nucleo207/Middlewares/Third_Party/FreeRTOS/Source/portable/MemMang/heap_4.c **** 		{
 248:/mnt/c/Users/Daniel/Documents/stm/ThirdParty/nucleo207/Middlewares/Third_Party/FreeRTOS/Source/portable/MemMang/heap_4.c **** 			extern void vApplicationMallocFailedHook( void );
 249:/mnt/c/Users/Daniel/Documents/stm/ThirdParty/nucleo207/Middlewares/Third_Party/FreeRTOS/Source/portable/MemMang/heap_4.c **** 			vApplicationMallocFailedHook();
 250:/mnt/c/Users/Daniel/Documents/stm/ThirdParty/nucleo207/Middlewares/Third_Party/FreeRTOS/Source/portable/MemMang/heap_4.c **** 		}
 251:/mnt/c/Users/Daniel/Documents/stm/ThirdParty/nucleo207/Middlewares/Third_Party/FreeRTOS/Source/portable/MemMang/heap_4.c **** 		else
 252:/mnt/c/Users/Daniel/Documents/stm/ThirdParty/nucleo207/Middlewares/Third_Party/FreeRTOS/Source/portable/MemMang/heap_4.c **** 		{
 253:/mnt/c/Users/Daniel/Documents/stm/ThirdParty/nucleo207/Middlewares/Third_Party/FreeRTOS/Source/portable/MemMang/heap_4.c **** 			mtCOVERAGE_TEST_MARKER();
 254:/mnt/c/Users/Daniel/Documents/stm/ThirdParty/nucleo207/Middlewares/Third_Party/FreeRTOS/Source/portable/MemMang/heap_4.c **** 		}
 255:/mnt/c/Users/Daniel/Documents/stm/ThirdParty/nucleo207/Middlewares/Third_Party/FreeRTOS/Source/portable/MemMang/heap_4.c **** 	}
 256:/mnt/c/Users/Daniel/Documents/stm/ThirdParty/nucleo207/Middlewares/Third_Party/FreeRTOS/Source/portable/MemMang/heap_4.c **** 	#endif
 257:/mnt/c/Users/Daniel/Documents/stm/ThirdParty/nucleo207/Middlewares/Third_Party/FreeRTOS/Source/portable/MemMang/heap_4.c **** 
 258:/mnt/c/Users/Daniel/Documents/stm/ThirdParty/nucleo207/Middlewares/Third_Party/FreeRTOS/Source/portable/MemMang/heap_4.c **** 	configASSERT( ( ( ( size_t ) pvReturn ) & ( size_t ) portBYTE_ALIGNMENT_MASK ) == 0 );
 259:/mnt/c/Users/Daniel/Documents/stm/ThirdParty/nucleo207/Middlewares/Third_Party/FreeRTOS/Source/portable/MemMang/heap_4.c **** 	return pvReturn;
 260:/mnt/c/Users/Daniel/Documents/stm/ThirdParty/nucleo207/Middlewares/Third_Party/FreeRTOS/Source/portable/MemMang/heap_4.c **** }
 261:/mnt/c/Users/Daniel/Documents/stm/ThirdParty/nucleo207/Middlewares/Third_Party/FreeRTOS/Source/portable/MemMang/heap_4.c **** /*-----------------------------------------------------------*/
 262:/mnt/c/Users/Daniel/Documents/stm/ThirdParty/nucleo207/Middlewares/Third_Party/FreeRTOS/Source/portable/MemMang/heap_4.c **** 
ARM GAS  /tmp/ccI1HsHp.s 			page 6


 263:/mnt/c/Users/Daniel/Documents/stm/ThirdParty/nucleo207/Middlewares/Third_Party/FreeRTOS/Source/portable/MemMang/heap_4.c **** void vPortFree( void *pv )
 264:/mnt/c/Users/Daniel/Documents/stm/ThirdParty/nucleo207/Middlewares/Third_Party/FreeRTOS/Source/portable/MemMang/heap_4.c **** {
 265:/mnt/c/Users/Daniel/Documents/stm/ThirdParty/nucleo207/Middlewares/Third_Party/FreeRTOS/Source/portable/MemMang/heap_4.c **** uint8_t *puc = ( uint8_t * ) pv;
 266:/mnt/c/Users/Daniel/Documents/stm/ThirdParty/nucleo207/Middlewares/Third_Party/FreeRTOS/Source/portable/MemMang/heap_4.c **** BlockLink_t *pxLink;
 267:/mnt/c/Users/Daniel/Documents/stm/ThirdParty/nucleo207/Middlewares/Third_Party/FreeRTOS/Source/portable/MemMang/heap_4.c **** 
 268:/mnt/c/Users/Daniel/Documents/stm/ThirdParty/nucleo207/Middlewares/Third_Party/FreeRTOS/Source/portable/MemMang/heap_4.c **** 	if( pv != NULL )
 269:/mnt/c/Users/Daniel/Documents/stm/ThirdParty/nucleo207/Middlewares/Third_Party/FreeRTOS/Source/portable/MemMang/heap_4.c **** 	{
 270:/mnt/c/Users/Daniel/Documents/stm/ThirdParty/nucleo207/Middlewares/Third_Party/FreeRTOS/Source/portable/MemMang/heap_4.c **** 		/* The memory being freed will have an BlockLink_t structure immediately
 271:/mnt/c/Users/Daniel/Documents/stm/ThirdParty/nucleo207/Middlewares/Third_Party/FreeRTOS/Source/portable/MemMang/heap_4.c **** 		before it. */
 272:/mnt/c/Users/Daniel/Documents/stm/ThirdParty/nucleo207/Middlewares/Third_Party/FreeRTOS/Source/portable/MemMang/heap_4.c **** 		puc -= xHeapStructSize;
 273:/mnt/c/Users/Daniel/Documents/stm/ThirdParty/nucleo207/Middlewares/Third_Party/FreeRTOS/Source/portable/MemMang/heap_4.c **** 
 274:/mnt/c/Users/Daniel/Documents/stm/ThirdParty/nucleo207/Middlewares/Third_Party/FreeRTOS/Source/portable/MemMang/heap_4.c **** 		/* This casting is to keep the compiler from issuing warnings. */
 275:/mnt/c/Users/Daniel/Documents/stm/ThirdParty/nucleo207/Middlewares/Third_Party/FreeRTOS/Source/portable/MemMang/heap_4.c **** 		pxLink = ( void * ) puc;
 276:/mnt/c/Users/Daniel/Documents/stm/ThirdParty/nucleo207/Middlewares/Third_Party/FreeRTOS/Source/portable/MemMang/heap_4.c **** 
 277:/mnt/c/Users/Daniel/Documents/stm/ThirdParty/nucleo207/Middlewares/Third_Party/FreeRTOS/Source/portable/MemMang/heap_4.c **** 		/* Check the block is actually allocated. */
 278:/mnt/c/Users/Daniel/Documents/stm/ThirdParty/nucleo207/Middlewares/Third_Party/FreeRTOS/Source/portable/MemMang/heap_4.c **** 		configASSERT( ( pxLink->xBlockSize & xBlockAllocatedBit ) != 0 );
 279:/mnt/c/Users/Daniel/Documents/stm/ThirdParty/nucleo207/Middlewares/Third_Party/FreeRTOS/Source/portable/MemMang/heap_4.c **** 		configASSERT( pxLink->pxNextFreeBlock == NULL );
 280:/mnt/c/Users/Daniel/Documents/stm/ThirdParty/nucleo207/Middlewares/Third_Party/FreeRTOS/Source/portable/MemMang/heap_4.c **** 
 281:/mnt/c/Users/Daniel/Documents/stm/ThirdParty/nucleo207/Middlewares/Third_Party/FreeRTOS/Source/portable/MemMang/heap_4.c **** 		if( ( pxLink->xBlockSize & xBlockAllocatedBit ) != 0 )
 282:/mnt/c/Users/Daniel/Documents/stm/ThirdParty/nucleo207/Middlewares/Third_Party/FreeRTOS/Source/portable/MemMang/heap_4.c **** 		{
 283:/mnt/c/Users/Daniel/Documents/stm/ThirdParty/nucleo207/Middlewares/Third_Party/FreeRTOS/Source/portable/MemMang/heap_4.c **** 			if( pxLink->pxNextFreeBlock == NULL )
 284:/mnt/c/Users/Daniel/Documents/stm/ThirdParty/nucleo207/Middlewares/Third_Party/FreeRTOS/Source/portable/MemMang/heap_4.c **** 			{
 285:/mnt/c/Users/Daniel/Documents/stm/ThirdParty/nucleo207/Middlewares/Third_Party/FreeRTOS/Source/portable/MemMang/heap_4.c **** 				/* The block is being returned to the heap - it is no longer
 286:/mnt/c/Users/Daniel/Documents/stm/ThirdParty/nucleo207/Middlewares/Third_Party/FreeRTOS/Source/portable/MemMang/heap_4.c **** 				allocated. */
 287:/mnt/c/Users/Daniel/Documents/stm/ThirdParty/nucleo207/Middlewares/Third_Party/FreeRTOS/Source/portable/MemMang/heap_4.c **** 				pxLink->xBlockSize &= ~xBlockAllocatedBit;
 288:/mnt/c/Users/Daniel/Documents/stm/ThirdParty/nucleo207/Middlewares/Third_Party/FreeRTOS/Source/portable/MemMang/heap_4.c **** 
 289:/mnt/c/Users/Daniel/Documents/stm/ThirdParty/nucleo207/Middlewares/Third_Party/FreeRTOS/Source/portable/MemMang/heap_4.c **** 				vTaskSuspendAll();
 290:/mnt/c/Users/Daniel/Documents/stm/ThirdParty/nucleo207/Middlewares/Third_Party/FreeRTOS/Source/portable/MemMang/heap_4.c **** 				{
 291:/mnt/c/Users/Daniel/Documents/stm/ThirdParty/nucleo207/Middlewares/Third_Party/FreeRTOS/Source/portable/MemMang/heap_4.c **** 					/* Add this block to the list of free blocks. */
 292:/mnt/c/Users/Daniel/Documents/stm/ThirdParty/nucleo207/Middlewares/Third_Party/FreeRTOS/Source/portable/MemMang/heap_4.c **** 					xFreeBytesRemaining += pxLink->xBlockSize;
 293:/mnt/c/Users/Daniel/Documents/stm/ThirdParty/nucleo207/Middlewares/Third_Party/FreeRTOS/Source/portable/MemMang/heap_4.c **** 					traceFREE( pv, pxLink->xBlockSize );
 294:/mnt/c/Users/Daniel/Documents/stm/ThirdParty/nucleo207/Middlewares/Third_Party/FreeRTOS/Source/portable/MemMang/heap_4.c **** 					prvInsertBlockIntoFreeList( ( ( BlockLink_t * ) pxLink ) );
 295:/mnt/c/Users/Daniel/Documents/stm/ThirdParty/nucleo207/Middlewares/Third_Party/FreeRTOS/Source/portable/MemMang/heap_4.c **** 				}
 296:/mnt/c/Users/Daniel/Documents/stm/ThirdParty/nucleo207/Middlewares/Third_Party/FreeRTOS/Source/portable/MemMang/heap_4.c **** 				( void ) xTaskResumeAll();
 297:/mnt/c/Users/Daniel/Documents/stm/ThirdParty/nucleo207/Middlewares/Third_Party/FreeRTOS/Source/portable/MemMang/heap_4.c **** 			}
 298:/mnt/c/Users/Daniel/Documents/stm/ThirdParty/nucleo207/Middlewares/Third_Party/FreeRTOS/Source/portable/MemMang/heap_4.c **** 			else
 299:/mnt/c/Users/Daniel/Documents/stm/ThirdParty/nucleo207/Middlewares/Third_Party/FreeRTOS/Source/portable/MemMang/heap_4.c **** 			{
 300:/mnt/c/Users/Daniel/Documents/stm/ThirdParty/nucleo207/Middlewares/Third_Party/FreeRTOS/Source/portable/MemMang/heap_4.c **** 				mtCOVERAGE_TEST_MARKER();
 301:/mnt/c/Users/Daniel/Documents/stm/ThirdParty/nucleo207/Middlewares/Third_Party/FreeRTOS/Source/portable/MemMang/heap_4.c **** 			}
 302:/mnt/c/Users/Daniel/Documents/stm/ThirdParty/nucleo207/Middlewares/Third_Party/FreeRTOS/Source/portable/MemMang/heap_4.c **** 		}
 303:/mnt/c/Users/Daniel/Documents/stm/ThirdParty/nucleo207/Middlewares/Third_Party/FreeRTOS/Source/portable/MemMang/heap_4.c **** 		else
 304:/mnt/c/Users/Daniel/Documents/stm/ThirdParty/nucleo207/Middlewares/Third_Party/FreeRTOS/Source/portable/MemMang/heap_4.c **** 		{
 305:/mnt/c/Users/Daniel/Documents/stm/ThirdParty/nucleo207/Middlewares/Third_Party/FreeRTOS/Source/portable/MemMang/heap_4.c **** 			mtCOVERAGE_TEST_MARKER();
 306:/mnt/c/Users/Daniel/Documents/stm/ThirdParty/nucleo207/Middlewares/Third_Party/FreeRTOS/Source/portable/MemMang/heap_4.c **** 		}
 307:/mnt/c/Users/Daniel/Documents/stm/ThirdParty/nucleo207/Middlewares/Third_Party/FreeRTOS/Source/portable/MemMang/heap_4.c **** 	}
 308:/mnt/c/Users/Daniel/Documents/stm/ThirdParty/nucleo207/Middlewares/Third_Party/FreeRTOS/Source/portable/MemMang/heap_4.c **** }
 309:/mnt/c/Users/Daniel/Documents/stm/ThirdParty/nucleo207/Middlewares/Third_Party/FreeRTOS/Source/portable/MemMang/heap_4.c **** /*-----------------------------------------------------------*/
 310:/mnt/c/Users/Daniel/Documents/stm/ThirdParty/nucleo207/Middlewares/Third_Party/FreeRTOS/Source/portable/MemMang/heap_4.c **** 
 311:/mnt/c/Users/Daniel/Documents/stm/ThirdParty/nucleo207/Middlewares/Third_Party/FreeRTOS/Source/portable/MemMang/heap_4.c **** size_t xPortGetFreeHeapSize( void )
 312:/mnt/c/Users/Daniel/Documents/stm/ThirdParty/nucleo207/Middlewares/Third_Party/FreeRTOS/Source/portable/MemMang/heap_4.c **** {
 313:/mnt/c/Users/Daniel/Documents/stm/ThirdParty/nucleo207/Middlewares/Third_Party/FreeRTOS/Source/portable/MemMang/heap_4.c **** 	return xFreeBytesRemaining;
 314:/mnt/c/Users/Daniel/Documents/stm/ThirdParty/nucleo207/Middlewares/Third_Party/FreeRTOS/Source/portable/MemMang/heap_4.c **** }
 315:/mnt/c/Users/Daniel/Documents/stm/ThirdParty/nucleo207/Middlewares/Third_Party/FreeRTOS/Source/portable/MemMang/heap_4.c **** /*-----------------------------------------------------------*/
 316:/mnt/c/Users/Daniel/Documents/stm/ThirdParty/nucleo207/Middlewares/Third_Party/FreeRTOS/Source/portable/MemMang/heap_4.c **** 
 317:/mnt/c/Users/Daniel/Documents/stm/ThirdParty/nucleo207/Middlewares/Third_Party/FreeRTOS/Source/portable/MemMang/heap_4.c **** size_t xPortGetMinimumEverFreeHeapSize( void )
 318:/mnt/c/Users/Daniel/Documents/stm/ThirdParty/nucleo207/Middlewares/Third_Party/FreeRTOS/Source/portable/MemMang/heap_4.c **** {
 319:/mnt/c/Users/Daniel/Documents/stm/ThirdParty/nucleo207/Middlewares/Third_Party/FreeRTOS/Source/portable/MemMang/heap_4.c **** 	return xMinimumEverFreeBytesRemaining;
ARM GAS  /tmp/ccI1HsHp.s 			page 7


 320:/mnt/c/Users/Daniel/Documents/stm/ThirdParty/nucleo207/Middlewares/Third_Party/FreeRTOS/Source/portable/MemMang/heap_4.c **** }
 321:/mnt/c/Users/Daniel/Documents/stm/ThirdParty/nucleo207/Middlewares/Third_Party/FreeRTOS/Source/portable/MemMang/heap_4.c **** /*-----------------------------------------------------------*/
 322:/mnt/c/Users/Daniel/Documents/stm/ThirdParty/nucleo207/Middlewares/Third_Party/FreeRTOS/Source/portable/MemMang/heap_4.c **** 
 323:/mnt/c/Users/Daniel/Documents/stm/ThirdParty/nucleo207/Middlewares/Third_Party/FreeRTOS/Source/portable/MemMang/heap_4.c **** void vPortInitialiseBlocks( void )
 324:/mnt/c/Users/Daniel/Documents/stm/ThirdParty/nucleo207/Middlewares/Third_Party/FreeRTOS/Source/portable/MemMang/heap_4.c **** {
 325:/mnt/c/Users/Daniel/Documents/stm/ThirdParty/nucleo207/Middlewares/Third_Party/FreeRTOS/Source/portable/MemMang/heap_4.c **** 	/* This just exists to keep the linker quiet. */
 326:/mnt/c/Users/Daniel/Documents/stm/ThirdParty/nucleo207/Middlewares/Third_Party/FreeRTOS/Source/portable/MemMang/heap_4.c **** }
 327:/mnt/c/Users/Daniel/Documents/stm/ThirdParty/nucleo207/Middlewares/Third_Party/FreeRTOS/Source/portable/MemMang/heap_4.c **** /*-----------------------------------------------------------*/
 328:/mnt/c/Users/Daniel/Documents/stm/ThirdParty/nucleo207/Middlewares/Third_Party/FreeRTOS/Source/portable/MemMang/heap_4.c **** 
 329:/mnt/c/Users/Daniel/Documents/stm/ThirdParty/nucleo207/Middlewares/Third_Party/FreeRTOS/Source/portable/MemMang/heap_4.c **** static void prvHeapInit( void )
 330:/mnt/c/Users/Daniel/Documents/stm/ThirdParty/nucleo207/Middlewares/Third_Party/FreeRTOS/Source/portable/MemMang/heap_4.c **** {
  25              		.loc 1 330 0
  26              		.cfi_startproc
  27              		@ args = 0, pretend = 0, frame = 0
  28              		@ frame_needed = 0, uses_anonymous_args = 0
  29              		@ link register save eliminated.
  30              	.LVL0:
 331:/mnt/c/Users/Daniel/Documents/stm/ThirdParty/nucleo207/Middlewares/Third_Party/FreeRTOS/Source/portable/MemMang/heap_4.c **** BlockLink_t *pxFirstFreeBlock;
 332:/mnt/c/Users/Daniel/Documents/stm/ThirdParty/nucleo207/Middlewares/Third_Party/FreeRTOS/Source/portable/MemMang/heap_4.c **** uint8_t *pucAlignedHeap;
 333:/mnt/c/Users/Daniel/Documents/stm/ThirdParty/nucleo207/Middlewares/Third_Party/FreeRTOS/Source/portable/MemMang/heap_4.c **** size_t uxAddress;
 334:/mnt/c/Users/Daniel/Documents/stm/ThirdParty/nucleo207/Middlewares/Third_Party/FreeRTOS/Source/portable/MemMang/heap_4.c **** size_t xTotalHeapSize = configTOTAL_HEAP_SIZE;
 335:/mnt/c/Users/Daniel/Documents/stm/ThirdParty/nucleo207/Middlewares/Third_Party/FreeRTOS/Source/portable/MemMang/heap_4.c **** 
 336:/mnt/c/Users/Daniel/Documents/stm/ThirdParty/nucleo207/Middlewares/Third_Party/FreeRTOS/Source/portable/MemMang/heap_4.c **** 	/* Ensure the heap starts on a correctly aligned boundary. */
 337:/mnt/c/Users/Daniel/Documents/stm/ThirdParty/nucleo207/Middlewares/Third_Party/FreeRTOS/Source/portable/MemMang/heap_4.c **** 	uxAddress = ( size_t ) ucHeap;
  31              		.loc 1 337 0
  32 0000 124A     		ldr	r2, .L4
  33              	.LVL1:
 338:/mnt/c/Users/Daniel/Documents/stm/ThirdParty/nucleo207/Middlewares/Third_Party/FreeRTOS/Source/portable/MemMang/heap_4.c **** 
 339:/mnt/c/Users/Daniel/Documents/stm/ThirdParty/nucleo207/Middlewares/Third_Party/FreeRTOS/Source/portable/MemMang/heap_4.c **** 	if( ( uxAddress & portBYTE_ALIGNMENT_MASK ) != 0 )
  34              		.loc 1 339 0
  35 0002 12F0070F 		tst	r2, #7
  36 0006 1ED0     		beq	.L3
 340:/mnt/c/Users/Daniel/Documents/stm/ThirdParty/nucleo207/Middlewares/Third_Party/FreeRTOS/Source/portable/MemMang/heap_4.c **** 	{
 341:/mnt/c/Users/Daniel/Documents/stm/ThirdParty/nucleo207/Middlewares/Third_Party/FreeRTOS/Source/portable/MemMang/heap_4.c **** 		uxAddress += ( portBYTE_ALIGNMENT - 1 );
  37              		.loc 1 341 0
  38 0008 D11D     		adds	r1, r2, #7
  39              	.LVL2:
 342:/mnt/c/Users/Daniel/Documents/stm/ThirdParty/nucleo207/Middlewares/Third_Party/FreeRTOS/Source/portable/MemMang/heap_4.c **** 		uxAddress &= ~( ( size_t ) portBYTE_ALIGNMENT_MASK );
  40              		.loc 1 342 0
  41 000a 21F00701 		bic	r1, r1, #7
  42              	.LVL3:
 343:/mnt/c/Users/Daniel/Documents/stm/ThirdParty/nucleo207/Middlewares/Third_Party/FreeRTOS/Source/portable/MemMang/heap_4.c **** 		xTotalHeapSize -= uxAddress - ( size_t ) ucHeap;
  43              		.loc 1 343 0
  44 000e C1F57053 		rsb	r3, r1, #15360
  45 0012 1344     		add	r3, r3, r2
  46              	.LVL4:
 342:/mnt/c/Users/Daniel/Documents/stm/ThirdParty/nucleo207/Middlewares/Third_Party/FreeRTOS/Source/portable/MemMang/heap_4.c **** 		uxAddress &= ~( ( size_t ) portBYTE_ALIGNMENT_MASK );
  47              		.loc 1 342 0
  48 0014 0A46     		mov	r2, r1
  49              	.LVL5:
  50              	.L2:
 344:/mnt/c/Users/Daniel/Documents/stm/ThirdParty/nucleo207/Middlewares/Third_Party/FreeRTOS/Source/portable/MemMang/heap_4.c **** 	}
 345:/mnt/c/Users/Daniel/Documents/stm/ThirdParty/nucleo207/Middlewares/Third_Party/FreeRTOS/Source/portable/MemMang/heap_4.c **** 
 346:/mnt/c/Users/Daniel/Documents/stm/ThirdParty/nucleo207/Middlewares/Third_Party/FreeRTOS/Source/portable/MemMang/heap_4.c **** 	pucAlignedHeap = ( uint8_t * ) uxAddress;
 347:/mnt/c/Users/Daniel/Documents/stm/ThirdParty/nucleo207/Middlewares/Third_Party/FreeRTOS/Source/portable/MemMang/heap_4.c **** 
 348:/mnt/c/Users/Daniel/Documents/stm/ThirdParty/nucleo207/Middlewares/Third_Party/FreeRTOS/Source/portable/MemMang/heap_4.c **** 	/* xStart is used to hold a pointer to the first item in the list of free
 349:/mnt/c/Users/Daniel/Documents/stm/ThirdParty/nucleo207/Middlewares/Third_Party/FreeRTOS/Source/portable/MemMang/heap_4.c **** 	blocks.  The void cast is used to prevent compiler warnings. */
ARM GAS  /tmp/ccI1HsHp.s 			page 8


 350:/mnt/c/Users/Daniel/Documents/stm/ThirdParty/nucleo207/Middlewares/Third_Party/FreeRTOS/Source/portable/MemMang/heap_4.c **** 	xStart.pxNextFreeBlock = ( void * ) pucAlignedHeap;
  51              		.loc 1 350 0
  52 0016 0E48     		ldr	r0, .L4+4
  53 0018 0260     		str	r2, [r0]
 351:/mnt/c/Users/Daniel/Documents/stm/ThirdParty/nucleo207/Middlewares/Third_Party/FreeRTOS/Source/portable/MemMang/heap_4.c **** 	xStart.xBlockSize = ( size_t ) 0;
  54              		.loc 1 351 0
  55 001a 0021     		movs	r1, #0
  56 001c 4160     		str	r1, [r0, #4]
 352:/mnt/c/Users/Daniel/Documents/stm/ThirdParty/nucleo207/Middlewares/Third_Party/FreeRTOS/Source/portable/MemMang/heap_4.c **** 
 353:/mnt/c/Users/Daniel/Documents/stm/ThirdParty/nucleo207/Middlewares/Third_Party/FreeRTOS/Source/portable/MemMang/heap_4.c **** 	/* pxEnd is used to mark the end of the list of free blocks and is inserted
 354:/mnt/c/Users/Daniel/Documents/stm/ThirdParty/nucleo207/Middlewares/Third_Party/FreeRTOS/Source/portable/MemMang/heap_4.c **** 	at the end of the heap space. */
 355:/mnt/c/Users/Daniel/Documents/stm/ThirdParty/nucleo207/Middlewares/Third_Party/FreeRTOS/Source/portable/MemMang/heap_4.c **** 	uxAddress = ( ( size_t ) pucAlignedHeap ) + xTotalHeapSize;
  57              		.loc 1 355 0
  58 001e 1344     		add	r3, r3, r2
  59              	.LVL6:
 356:/mnt/c/Users/Daniel/Documents/stm/ThirdParty/nucleo207/Middlewares/Third_Party/FreeRTOS/Source/portable/MemMang/heap_4.c **** 	uxAddress -= xHeapStructSize;
  60              		.loc 1 356 0
  61 0020 083B     		subs	r3, r3, #8
  62              	.LVL7:
 357:/mnt/c/Users/Daniel/Documents/stm/ThirdParty/nucleo207/Middlewares/Third_Party/FreeRTOS/Source/portable/MemMang/heap_4.c **** 	uxAddress &= ~( ( size_t ) portBYTE_ALIGNMENT_MASK );
  63              		.loc 1 357 0
  64 0022 23F00703 		bic	r3, r3, #7
  65              	.LVL8:
 358:/mnt/c/Users/Daniel/Documents/stm/ThirdParty/nucleo207/Middlewares/Third_Party/FreeRTOS/Source/portable/MemMang/heap_4.c **** 	pxEnd = ( void * ) uxAddress;
  66              		.loc 1 358 0
  67 0026 0B48     		ldr	r0, .L4+8
  68 0028 0360     		str	r3, [r0]
 359:/mnt/c/Users/Daniel/Documents/stm/ThirdParty/nucleo207/Middlewares/Third_Party/FreeRTOS/Source/portable/MemMang/heap_4.c **** 	pxEnd->xBlockSize = 0;
  69              		.loc 1 359 0
  70 002a 5960     		str	r1, [r3, #4]
 360:/mnt/c/Users/Daniel/Documents/stm/ThirdParty/nucleo207/Middlewares/Third_Party/FreeRTOS/Source/portable/MemMang/heap_4.c **** 	pxEnd->pxNextFreeBlock = NULL;
  71              		.loc 1 360 0
  72 002c 1960     		str	r1, [r3]
  73              	.LVL9:
 361:/mnt/c/Users/Daniel/Documents/stm/ThirdParty/nucleo207/Middlewares/Third_Party/FreeRTOS/Source/portable/MemMang/heap_4.c **** 
 362:/mnt/c/Users/Daniel/Documents/stm/ThirdParty/nucleo207/Middlewares/Third_Party/FreeRTOS/Source/portable/MemMang/heap_4.c **** 	/* To start with there is a single free block that is sized to take up the
 363:/mnt/c/Users/Daniel/Documents/stm/ThirdParty/nucleo207/Middlewares/Third_Party/FreeRTOS/Source/portable/MemMang/heap_4.c **** 	entire heap space, minus the space taken by pxEnd. */
 364:/mnt/c/Users/Daniel/Documents/stm/ThirdParty/nucleo207/Middlewares/Third_Party/FreeRTOS/Source/portable/MemMang/heap_4.c **** 	pxFirstFreeBlock = ( void * ) pucAlignedHeap;
 365:/mnt/c/Users/Daniel/Documents/stm/ThirdParty/nucleo207/Middlewares/Third_Party/FreeRTOS/Source/portable/MemMang/heap_4.c **** 	pxFirstFreeBlock->xBlockSize = uxAddress - ( size_t ) pxFirstFreeBlock;
  74              		.loc 1 365 0
  75 002e 991A     		subs	r1, r3, r2
  76 0030 5160     		str	r1, [r2, #4]
 366:/mnt/c/Users/Daniel/Documents/stm/ThirdParty/nucleo207/Middlewares/Third_Party/FreeRTOS/Source/portable/MemMang/heap_4.c **** 	pxFirstFreeBlock->pxNextFreeBlock = pxEnd;
  77              		.loc 1 366 0
  78 0032 1360     		str	r3, [r2]
 367:/mnt/c/Users/Daniel/Documents/stm/ThirdParty/nucleo207/Middlewares/Third_Party/FreeRTOS/Source/portable/MemMang/heap_4.c **** 
 368:/mnt/c/Users/Daniel/Documents/stm/ThirdParty/nucleo207/Middlewares/Third_Party/FreeRTOS/Source/portable/MemMang/heap_4.c **** 	/* Only one block exists - and it covers the entire usable heap space. */
 369:/mnt/c/Users/Daniel/Documents/stm/ThirdParty/nucleo207/Middlewares/Third_Party/FreeRTOS/Source/portable/MemMang/heap_4.c **** 	xMinimumEverFreeBytesRemaining = pxFirstFreeBlock->xBlockSize;
  79              		.loc 1 369 0
  80 0034 084B     		ldr	r3, .L4+12
  81              	.LVL10:
  82 0036 1960     		str	r1, [r3]
 370:/mnt/c/Users/Daniel/Documents/stm/ThirdParty/nucleo207/Middlewares/Third_Party/FreeRTOS/Source/portable/MemMang/heap_4.c **** 	xFreeBytesRemaining = pxFirstFreeBlock->xBlockSize;
  83              		.loc 1 370 0
  84 0038 084B     		ldr	r3, .L4+16
  85 003a 1960     		str	r1, [r3]
 371:/mnt/c/Users/Daniel/Documents/stm/ThirdParty/nucleo207/Middlewares/Third_Party/FreeRTOS/Source/portable/MemMang/heap_4.c **** 
ARM GAS  /tmp/ccI1HsHp.s 			page 9


 372:/mnt/c/Users/Daniel/Documents/stm/ThirdParty/nucleo207/Middlewares/Third_Party/FreeRTOS/Source/portable/MemMang/heap_4.c **** 	/* Work out the position of the top bit in a size_t variable. */
 373:/mnt/c/Users/Daniel/Documents/stm/ThirdParty/nucleo207/Middlewares/Third_Party/FreeRTOS/Source/portable/MemMang/heap_4.c **** 	xBlockAllocatedBit = ( ( size_t ) 1 ) << ( ( sizeof( size_t ) * heapBITS_PER_BYTE ) - 1 );
  86              		.loc 1 373 0
  87 003c 084B     		ldr	r3, .L4+20
  88 003e 4FF00042 		mov	r2, #-2147483648
  89              	.LVL11:
  90 0042 1A60     		str	r2, [r3]
 374:/mnt/c/Users/Daniel/Documents/stm/ThirdParty/nucleo207/Middlewares/Third_Party/FreeRTOS/Source/portable/MemMang/heap_4.c **** }
  91              		.loc 1 374 0
  92 0044 7047     		bx	lr
  93              	.LVL12:
  94              	.L3:
 334:/mnt/c/Users/Daniel/Documents/stm/ThirdParty/nucleo207/Middlewares/Third_Party/FreeRTOS/Source/portable/MemMang/heap_4.c **** 
  95              		.loc 1 334 0
  96 0046 4FF47053 		mov	r3, #15360
  97 004a E4E7     		b	.L2
  98              	.L5:
  99              		.align	2
 100              	.L4:
 101 004c 00000000 		.word	ucHeap
 102 0050 00000000 		.word	.LANCHOR0
 103 0054 00000000 		.word	.LANCHOR1
 104 0058 00000000 		.word	.LANCHOR2
 105 005c 00000000 		.word	.LANCHOR3
 106 0060 00000000 		.word	.LANCHOR4
 107              		.cfi_endproc
 108              	.LFE10:
 110              		.section	.text.prvInsertBlockIntoFreeList,"ax",%progbits
 111              		.align	1
 112              		.syntax unified
 113              		.thumb
 114              		.thumb_func
 115              		.fpu softvfp
 117              	prvInsertBlockIntoFreeList:
 118              	.LFB11:
 375:/mnt/c/Users/Daniel/Documents/stm/ThirdParty/nucleo207/Middlewares/Third_Party/FreeRTOS/Source/portable/MemMang/heap_4.c **** /*-----------------------------------------------------------*/
 376:/mnt/c/Users/Daniel/Documents/stm/ThirdParty/nucleo207/Middlewares/Third_Party/FreeRTOS/Source/portable/MemMang/heap_4.c **** 
 377:/mnt/c/Users/Daniel/Documents/stm/ThirdParty/nucleo207/Middlewares/Third_Party/FreeRTOS/Source/portable/MemMang/heap_4.c **** static void prvInsertBlockIntoFreeList( BlockLink_t *pxBlockToInsert )
 378:/mnt/c/Users/Daniel/Documents/stm/ThirdParty/nucleo207/Middlewares/Third_Party/FreeRTOS/Source/portable/MemMang/heap_4.c **** {
 119              		.loc 1 378 0
 120              		.cfi_startproc
 121              		@ args = 0, pretend = 0, frame = 0
 122              		@ frame_needed = 0, uses_anonymous_args = 0
 123              		@ link register save eliminated.
 124              	.LVL13:
 125 0000 10B4     		push	{r4}
 126              	.LCFI0:
 127              		.cfi_def_cfa_offset 4
 128              		.cfi_offset 4, -4
 129              	.LVL14:
 379:/mnt/c/Users/Daniel/Documents/stm/ThirdParty/nucleo207/Middlewares/Third_Party/FreeRTOS/Source/portable/MemMang/heap_4.c **** BlockLink_t *pxIterator;
 380:/mnt/c/Users/Daniel/Documents/stm/ThirdParty/nucleo207/Middlewares/Third_Party/FreeRTOS/Source/portable/MemMang/heap_4.c **** uint8_t *puc;
 381:/mnt/c/Users/Daniel/Documents/stm/ThirdParty/nucleo207/Middlewares/Third_Party/FreeRTOS/Source/portable/MemMang/heap_4.c **** 
 382:/mnt/c/Users/Daniel/Documents/stm/ThirdParty/nucleo207/Middlewares/Third_Party/FreeRTOS/Source/portable/MemMang/heap_4.c **** 	/* Iterate through the list until a block is found that has a higher address
 383:/mnt/c/Users/Daniel/Documents/stm/ThirdParty/nucleo207/Middlewares/Third_Party/FreeRTOS/Source/portable/MemMang/heap_4.c **** 	than the block being inserted. */
 384:/mnt/c/Users/Daniel/Documents/stm/ThirdParty/nucleo207/Middlewares/Third_Party/FreeRTOS/Source/portable/MemMang/heap_4.c **** 	for( pxIterator = &xStart; pxIterator->pxNextFreeBlock < pxBlockToInsert; pxIterator = pxIterator-
 130              		.loc 1 384 0
ARM GAS  /tmp/ccI1HsHp.s 			page 10


 131 0002 124B     		ldr	r3, .L15
 132              	.LVL15:
 133              	.L7:
 134              		.loc 1 384 0 is_stmt 0 discriminator 1
 135 0004 1A68     		ldr	r2, [r3]
 136 0006 8242     		cmp	r2, r0
 137 0008 1AD3     		bcc	.L13
 138              	.LVL16:
 385:/mnt/c/Users/Daniel/Documents/stm/ThirdParty/nucleo207/Middlewares/Third_Party/FreeRTOS/Source/portable/MemMang/heap_4.c **** 	{
 386:/mnt/c/Users/Daniel/Documents/stm/ThirdParty/nucleo207/Middlewares/Third_Party/FreeRTOS/Source/portable/MemMang/heap_4.c **** 		/* Nothing to do here, just iterate to the right position. */
 387:/mnt/c/Users/Daniel/Documents/stm/ThirdParty/nucleo207/Middlewares/Third_Party/FreeRTOS/Source/portable/MemMang/heap_4.c **** 	}
 388:/mnt/c/Users/Daniel/Documents/stm/ThirdParty/nucleo207/Middlewares/Third_Party/FreeRTOS/Source/portable/MemMang/heap_4.c **** 
 389:/mnt/c/Users/Daniel/Documents/stm/ThirdParty/nucleo207/Middlewares/Third_Party/FreeRTOS/Source/portable/MemMang/heap_4.c **** 	/* Do the block being inserted, and the block it is being inserted after
 390:/mnt/c/Users/Daniel/Documents/stm/ThirdParty/nucleo207/Middlewares/Third_Party/FreeRTOS/Source/portable/MemMang/heap_4.c **** 	make a contiguous block of memory? */
 391:/mnt/c/Users/Daniel/Documents/stm/ThirdParty/nucleo207/Middlewares/Third_Party/FreeRTOS/Source/portable/MemMang/heap_4.c **** 	puc = ( uint8_t * ) pxIterator;
 392:/mnt/c/Users/Daniel/Documents/stm/ThirdParty/nucleo207/Middlewares/Third_Party/FreeRTOS/Source/portable/MemMang/heap_4.c **** 	if( ( puc + pxIterator->xBlockSize ) == ( uint8_t * ) pxBlockToInsert )
 139              		.loc 1 392 0 is_stmt 1
 140 000a 5968     		ldr	r1, [r3, #4]
 141 000c 5C18     		adds	r4, r3, r1
 142 000e 8442     		cmp	r4, r0
 143 0010 03D1     		bne	.L8
 393:/mnt/c/Users/Daniel/Documents/stm/ThirdParty/nucleo207/Middlewares/Third_Party/FreeRTOS/Source/portable/MemMang/heap_4.c **** 	{
 394:/mnt/c/Users/Daniel/Documents/stm/ThirdParty/nucleo207/Middlewares/Third_Party/FreeRTOS/Source/portable/MemMang/heap_4.c **** 		pxIterator->xBlockSize += pxBlockToInsert->xBlockSize;
 144              		.loc 1 394 0
 145 0012 4068     		ldr	r0, [r0, #4]
 146              	.LVL17:
 147 0014 0144     		add	r1, r1, r0
 148 0016 5960     		str	r1, [r3, #4]
 149              	.LVL18:
 395:/mnt/c/Users/Daniel/Documents/stm/ThirdParty/nucleo207/Middlewares/Third_Party/FreeRTOS/Source/portable/MemMang/heap_4.c **** 		pxBlockToInsert = pxIterator;
 150              		.loc 1 395 0
 151 0018 1846     		mov	r0, r3
 152              	.LVL19:
 153              	.L8:
 396:/mnt/c/Users/Daniel/Documents/stm/ThirdParty/nucleo207/Middlewares/Third_Party/FreeRTOS/Source/portable/MemMang/heap_4.c **** 	}
 397:/mnt/c/Users/Daniel/Documents/stm/ThirdParty/nucleo207/Middlewares/Third_Party/FreeRTOS/Source/portable/MemMang/heap_4.c **** 	else
 398:/mnt/c/Users/Daniel/Documents/stm/ThirdParty/nucleo207/Middlewares/Third_Party/FreeRTOS/Source/portable/MemMang/heap_4.c **** 	{
 399:/mnt/c/Users/Daniel/Documents/stm/ThirdParty/nucleo207/Middlewares/Third_Party/FreeRTOS/Source/portable/MemMang/heap_4.c **** 		mtCOVERAGE_TEST_MARKER();
 400:/mnt/c/Users/Daniel/Documents/stm/ThirdParty/nucleo207/Middlewares/Third_Party/FreeRTOS/Source/portable/MemMang/heap_4.c **** 	}
 401:/mnt/c/Users/Daniel/Documents/stm/ThirdParty/nucleo207/Middlewares/Third_Party/FreeRTOS/Source/portable/MemMang/heap_4.c **** 
 402:/mnt/c/Users/Daniel/Documents/stm/ThirdParty/nucleo207/Middlewares/Third_Party/FreeRTOS/Source/portable/MemMang/heap_4.c **** 	/* Do the block being inserted, and the block it is being inserted before
 403:/mnt/c/Users/Daniel/Documents/stm/ThirdParty/nucleo207/Middlewares/Third_Party/FreeRTOS/Source/portable/MemMang/heap_4.c **** 	make a contiguous block of memory? */
 404:/mnt/c/Users/Daniel/Documents/stm/ThirdParty/nucleo207/Middlewares/Third_Party/FreeRTOS/Source/portable/MemMang/heap_4.c **** 	puc = ( uint8_t * ) pxBlockToInsert;
 405:/mnt/c/Users/Daniel/Documents/stm/ThirdParty/nucleo207/Middlewares/Third_Party/FreeRTOS/Source/portable/MemMang/heap_4.c **** 	if( ( puc + pxBlockToInsert->xBlockSize ) == ( uint8_t * ) pxIterator->pxNextFreeBlock )
 154              		.loc 1 405 0
 155 001a 4168     		ldr	r1, [r0, #4]
 156 001c 4418     		adds	r4, r0, r1
 157 001e A242     		cmp	r2, r4
 158 0020 12D1     		bne	.L9
 406:/mnt/c/Users/Daniel/Documents/stm/ThirdParty/nucleo207/Middlewares/Third_Party/FreeRTOS/Source/portable/MemMang/heap_4.c **** 	{
 407:/mnt/c/Users/Daniel/Documents/stm/ThirdParty/nucleo207/Middlewares/Third_Party/FreeRTOS/Source/portable/MemMang/heap_4.c **** 		if( pxIterator->pxNextFreeBlock != pxEnd )
 159              		.loc 1 407 0
 160 0022 0B4C     		ldr	r4, .L15+4
 161 0024 2468     		ldr	r4, [r4]
 162 0026 A242     		cmp	r2, r4
 163 0028 0CD0     		beq	.L10
 408:/mnt/c/Users/Daniel/Documents/stm/ThirdParty/nucleo207/Middlewares/Third_Party/FreeRTOS/Source/portable/MemMang/heap_4.c **** 		{
ARM GAS  /tmp/ccI1HsHp.s 			page 11


 409:/mnt/c/Users/Daniel/Documents/stm/ThirdParty/nucleo207/Middlewares/Third_Party/FreeRTOS/Source/portable/MemMang/heap_4.c **** 			/* Form one big block from the two blocks. */
 410:/mnt/c/Users/Daniel/Documents/stm/ThirdParty/nucleo207/Middlewares/Third_Party/FreeRTOS/Source/portable/MemMang/heap_4.c **** 			pxBlockToInsert->xBlockSize += pxIterator->pxNextFreeBlock->xBlockSize;
 164              		.loc 1 410 0
 165 002a 5268     		ldr	r2, [r2, #4]
 166 002c 1144     		add	r1, r1, r2
 167 002e 4160     		str	r1, [r0, #4]
 411:/mnt/c/Users/Daniel/Documents/stm/ThirdParty/nucleo207/Middlewares/Third_Party/FreeRTOS/Source/portable/MemMang/heap_4.c **** 			pxBlockToInsert->pxNextFreeBlock = pxIterator->pxNextFreeBlock->pxNextFreeBlock;
 168              		.loc 1 411 0
 169 0030 1A68     		ldr	r2, [r3]
 170 0032 1268     		ldr	r2, [r2]
 171 0034 0260     		str	r2, [r0]
 172              	.L11:
 412:/mnt/c/Users/Daniel/Documents/stm/ThirdParty/nucleo207/Middlewares/Third_Party/FreeRTOS/Source/portable/MemMang/heap_4.c **** 		}
 413:/mnt/c/Users/Daniel/Documents/stm/ThirdParty/nucleo207/Middlewares/Third_Party/FreeRTOS/Source/portable/MemMang/heap_4.c **** 		else
 414:/mnt/c/Users/Daniel/Documents/stm/ThirdParty/nucleo207/Middlewares/Third_Party/FreeRTOS/Source/portable/MemMang/heap_4.c **** 		{
 415:/mnt/c/Users/Daniel/Documents/stm/ThirdParty/nucleo207/Middlewares/Third_Party/FreeRTOS/Source/portable/MemMang/heap_4.c **** 			pxBlockToInsert->pxNextFreeBlock = pxEnd;
 416:/mnt/c/Users/Daniel/Documents/stm/ThirdParty/nucleo207/Middlewares/Third_Party/FreeRTOS/Source/portable/MemMang/heap_4.c **** 		}
 417:/mnt/c/Users/Daniel/Documents/stm/ThirdParty/nucleo207/Middlewares/Third_Party/FreeRTOS/Source/portable/MemMang/heap_4.c **** 	}
 418:/mnt/c/Users/Daniel/Documents/stm/ThirdParty/nucleo207/Middlewares/Third_Party/FreeRTOS/Source/portable/MemMang/heap_4.c **** 	else
 419:/mnt/c/Users/Daniel/Documents/stm/ThirdParty/nucleo207/Middlewares/Third_Party/FreeRTOS/Source/portable/MemMang/heap_4.c **** 	{
 420:/mnt/c/Users/Daniel/Documents/stm/ThirdParty/nucleo207/Middlewares/Third_Party/FreeRTOS/Source/portable/MemMang/heap_4.c **** 		pxBlockToInsert->pxNextFreeBlock = pxIterator->pxNextFreeBlock;
 421:/mnt/c/Users/Daniel/Documents/stm/ThirdParty/nucleo207/Middlewares/Third_Party/FreeRTOS/Source/portable/MemMang/heap_4.c **** 	}
 422:/mnt/c/Users/Daniel/Documents/stm/ThirdParty/nucleo207/Middlewares/Third_Party/FreeRTOS/Source/portable/MemMang/heap_4.c **** 
 423:/mnt/c/Users/Daniel/Documents/stm/ThirdParty/nucleo207/Middlewares/Third_Party/FreeRTOS/Source/portable/MemMang/heap_4.c **** 	/* If the block being inserted plugged a gab, so was merged with the block
 424:/mnt/c/Users/Daniel/Documents/stm/ThirdParty/nucleo207/Middlewares/Third_Party/FreeRTOS/Source/portable/MemMang/heap_4.c **** 	before and the block after, then it's pxNextFreeBlock pointer will have
 425:/mnt/c/Users/Daniel/Documents/stm/ThirdParty/nucleo207/Middlewares/Third_Party/FreeRTOS/Source/portable/MemMang/heap_4.c **** 	already been set, and should not be set here as that would make it point
 426:/mnt/c/Users/Daniel/Documents/stm/ThirdParty/nucleo207/Middlewares/Third_Party/FreeRTOS/Source/portable/MemMang/heap_4.c **** 	to itself. */
 427:/mnt/c/Users/Daniel/Documents/stm/ThirdParty/nucleo207/Middlewares/Third_Party/FreeRTOS/Source/portable/MemMang/heap_4.c **** 	if( pxIterator != pxBlockToInsert )
 173              		.loc 1 427 0
 174 0036 9842     		cmp	r0, r3
 175 0038 00D0     		beq	.L6
 428:/mnt/c/Users/Daniel/Documents/stm/ThirdParty/nucleo207/Middlewares/Third_Party/FreeRTOS/Source/portable/MemMang/heap_4.c **** 	{
 429:/mnt/c/Users/Daniel/Documents/stm/ThirdParty/nucleo207/Middlewares/Third_Party/FreeRTOS/Source/portable/MemMang/heap_4.c **** 		pxIterator->pxNextFreeBlock = pxBlockToInsert;
 176              		.loc 1 429 0
 177 003a 1860     		str	r0, [r3]
 178              	.L6:
 430:/mnt/c/Users/Daniel/Documents/stm/ThirdParty/nucleo207/Middlewares/Third_Party/FreeRTOS/Source/portable/MemMang/heap_4.c **** 	}
 431:/mnt/c/Users/Daniel/Documents/stm/ThirdParty/nucleo207/Middlewares/Third_Party/FreeRTOS/Source/portable/MemMang/heap_4.c **** 	else
 432:/mnt/c/Users/Daniel/Documents/stm/ThirdParty/nucleo207/Middlewares/Third_Party/FreeRTOS/Source/portable/MemMang/heap_4.c **** 	{
 433:/mnt/c/Users/Daniel/Documents/stm/ThirdParty/nucleo207/Middlewares/Third_Party/FreeRTOS/Source/portable/MemMang/heap_4.c **** 		mtCOVERAGE_TEST_MARKER();
 434:/mnt/c/Users/Daniel/Documents/stm/ThirdParty/nucleo207/Middlewares/Third_Party/FreeRTOS/Source/portable/MemMang/heap_4.c **** 	}
 435:/mnt/c/Users/Daniel/Documents/stm/ThirdParty/nucleo207/Middlewares/Third_Party/FreeRTOS/Source/portable/MemMang/heap_4.c **** }
 179              		.loc 1 435 0
 180 003c 10BC     		pop	{r4}
 181              	.LCFI1:
 182              		.cfi_remember_state
 183              		.cfi_restore 4
 184              		.cfi_def_cfa_offset 0
 185 003e 7047     		bx	lr
 186              	.LVL20:
 187              	.L13:
 188              	.LCFI2:
 189              		.cfi_restore_state
 384:/mnt/c/Users/Daniel/Documents/stm/ThirdParty/nucleo207/Middlewares/Third_Party/FreeRTOS/Source/portable/MemMang/heap_4.c **** 	{
 190              		.loc 1 384 0
 191 0040 1346     		mov	r3, r2
 192              	.LVL21:
ARM GAS  /tmp/ccI1HsHp.s 			page 12


 193 0042 DFE7     		b	.L7
 194              	.LVL22:
 195              	.L10:
 415:/mnt/c/Users/Daniel/Documents/stm/ThirdParty/nucleo207/Middlewares/Third_Party/FreeRTOS/Source/portable/MemMang/heap_4.c **** 		}
 196              		.loc 1 415 0
 197 0044 0460     		str	r4, [r0]
 198 0046 F6E7     		b	.L11
 199              	.L9:
 420:/mnt/c/Users/Daniel/Documents/stm/ThirdParty/nucleo207/Middlewares/Third_Party/FreeRTOS/Source/portable/MemMang/heap_4.c **** 	}
 200              		.loc 1 420 0
 201 0048 0260     		str	r2, [r0]
 202 004a F4E7     		b	.L11
 203              	.L16:
 204              		.align	2
 205              	.L15:
 206 004c 00000000 		.word	.LANCHOR0
 207 0050 00000000 		.word	.LANCHOR1
 208              		.cfi_endproc
 209              	.LFE11:
 211              		.section	.text.pvPortMalloc,"ax",%progbits
 212              		.align	1
 213              		.global	pvPortMalloc
 214              		.syntax unified
 215              		.thumb
 216              		.thumb_func
 217              		.fpu softvfp
 219              	pvPortMalloc:
 220              	.LFB5:
 114:/mnt/c/Users/Daniel/Documents/stm/ThirdParty/nucleo207/Middlewares/Third_Party/FreeRTOS/Source/portable/MemMang/heap_4.c **** BlockLink_t *pxBlock, *pxPreviousBlock, *pxNewBlockLink;
 221              		.loc 1 114 0
 222              		.cfi_startproc
 223              		@ args = 0, pretend = 0, frame = 0
 224              		@ frame_needed = 0, uses_anonymous_args = 0
 225              	.LVL23:
 226 0000 70B5     		push	{r4, r5, r6, lr}
 227              	.LCFI3:
 228              		.cfi_def_cfa_offset 16
 229              		.cfi_offset 4, -16
 230              		.cfi_offset 5, -12
 231              		.cfi_offset 6, -8
 232              		.cfi_offset 14, -4
 233 0002 0446     		mov	r4, r0
 234              	.LVL24:
 118:/mnt/c/Users/Daniel/Documents/stm/ThirdParty/nucleo207/Middlewares/Third_Party/FreeRTOS/Source/portable/MemMang/heap_4.c **** 	{
 235              		.loc 1 118 0
 236 0004 FFF7FEFF 		bl	vTaskSuspendAll
 237              	.LVL25:
 122:/mnt/c/Users/Daniel/Documents/stm/ThirdParty/nucleo207/Middlewares/Third_Party/FreeRTOS/Source/portable/MemMang/heap_4.c **** 		{
 238              		.loc 1 122 0
 239 0008 3A4B     		ldr	r3, .L37
 240 000a 1B68     		ldr	r3, [r3]
 241 000c BBB1     		cbz	r3, .L36
 242              	.L18:
 135:/mnt/c/Users/Daniel/Documents/stm/ThirdParty/nucleo207/Middlewares/Third_Party/FreeRTOS/Source/portable/MemMang/heap_4.c **** 		{
 243              		.loc 1 135 0
 244 000e 3A4B     		ldr	r3, .L37+4
 245 0010 1B68     		ldr	r3, [r3]
ARM GAS  /tmp/ccI1HsHp.s 			page 13


 246 0012 1C42     		tst	r4, r3
 247 0014 63D1     		bne	.L30
 139:/mnt/c/Users/Daniel/Documents/stm/ThirdParty/nucleo207/Middlewares/Third_Party/FreeRTOS/Source/portable/MemMang/heap_4.c **** 			{
 248              		.loc 1 139 0
 249 0016 ACB1     		cbz	r4, .L20
 141:/mnt/c/Users/Daniel/Documents/stm/ThirdParty/nucleo207/Middlewares/Third_Party/FreeRTOS/Source/portable/MemMang/heap_4.c **** 
 250              		.loc 1 141 0
 251 0018 0834     		adds	r4, r4, #8
 252              	.LVL26:
 145:/mnt/c/Users/Daniel/Documents/stm/ThirdParty/nucleo207/Middlewares/Third_Party/FreeRTOS/Source/portable/MemMang/heap_4.c **** 				{
 253              		.loc 1 145 0
 254 001a 14F0070F 		tst	r4, #7
 255 001e 11D0     		beq	.L20
 148:/mnt/c/Users/Daniel/Documents/stm/ThirdParty/nucleo207/Middlewares/Third_Party/FreeRTOS/Source/portable/MemMang/heap_4.c **** 					configASSERT( ( xWantedSize & portBYTE_ALIGNMENT_MASK ) == 0 );
 256              		.loc 1 148 0
 257 0020 24F00704 		bic	r4, r4, #7
 258              	.LVL27:
 259 0024 0834     		adds	r4, r4, #8
 260              	.LVL28:
 149:/mnt/c/Users/Daniel/Documents/stm/ThirdParty/nucleo207/Middlewares/Third_Party/FreeRTOS/Source/portable/MemMang/heap_4.c **** 				}
 261              		.loc 1 149 0
 262 0026 04F00703 		and	r3, r4, #7
 263 002a 5BB1     		cbz	r3, .L20
 264              	.LBB12:
 265              	.LBB13:
 266              		.file 2 "/mnt/c/Users/Daniel/Documents/stm/ThirdParty/nucleo207/Middlewares/Third_Party/FreeRTOS/S
   1:/mnt/c/Users/Daniel/Documents/stm/ThirdParty/nucleo207/Middlewares/Third_Party/FreeRTOS/Source/portable/GCC/ARM_CM3/portmacro.h **** /*
   2:/mnt/c/Users/Daniel/Documents/stm/ThirdParty/nucleo207/Middlewares/Third_Party/FreeRTOS/Source/portable/GCC/ARM_CM3/portmacro.h ****  * FreeRTOS Kernel V10.0.1
   3:/mnt/c/Users/Daniel/Documents/stm/ThirdParty/nucleo207/Middlewares/Third_Party/FreeRTOS/Source/portable/GCC/ARM_CM3/portmacro.h ****  * Copyright (C) 2017 Amazon.com, Inc. or its affiliates.  All Rights Reserved.
   4:/mnt/c/Users/Daniel/Documents/stm/ThirdParty/nucleo207/Middlewares/Third_Party/FreeRTOS/Source/portable/GCC/ARM_CM3/portmacro.h ****  *
   5:/mnt/c/Users/Daniel/Documents/stm/ThirdParty/nucleo207/Middlewares/Third_Party/FreeRTOS/Source/portable/GCC/ARM_CM3/portmacro.h ****  * Permission is hereby granted, free of charge, to any person obtaining a copy of
   6:/mnt/c/Users/Daniel/Documents/stm/ThirdParty/nucleo207/Middlewares/Third_Party/FreeRTOS/Source/portable/GCC/ARM_CM3/portmacro.h ****  * this software and associated documentation files (the "Software"), to deal in
   7:/mnt/c/Users/Daniel/Documents/stm/ThirdParty/nucleo207/Middlewares/Third_Party/FreeRTOS/Source/portable/GCC/ARM_CM3/portmacro.h ****  * the Software without restriction, including without limitation the rights to
   8:/mnt/c/Users/Daniel/Documents/stm/ThirdParty/nucleo207/Middlewares/Third_Party/FreeRTOS/Source/portable/GCC/ARM_CM3/portmacro.h ****  * use, copy, modify, merge, publish, distribute, sublicense, and/or sell copies of
   9:/mnt/c/Users/Daniel/Documents/stm/ThirdParty/nucleo207/Middlewares/Third_Party/FreeRTOS/Source/portable/GCC/ARM_CM3/portmacro.h ****  * the Software, and to permit persons to whom the Software is furnished to do so,
  10:/mnt/c/Users/Daniel/Documents/stm/ThirdParty/nucleo207/Middlewares/Third_Party/FreeRTOS/Source/portable/GCC/ARM_CM3/portmacro.h ****  * subject to the following conditions:
  11:/mnt/c/Users/Daniel/Documents/stm/ThirdParty/nucleo207/Middlewares/Third_Party/FreeRTOS/Source/portable/GCC/ARM_CM3/portmacro.h ****  *
  12:/mnt/c/Users/Daniel/Documents/stm/ThirdParty/nucleo207/Middlewares/Third_Party/FreeRTOS/Source/portable/GCC/ARM_CM3/portmacro.h ****  * The above copyright notice and this permission notice shall be included in all
  13:/mnt/c/Users/Daniel/Documents/stm/ThirdParty/nucleo207/Middlewares/Third_Party/FreeRTOS/Source/portable/GCC/ARM_CM3/portmacro.h ****  * copies or substantial portions of the Software.
  14:/mnt/c/Users/Daniel/Documents/stm/ThirdParty/nucleo207/Middlewares/Third_Party/FreeRTOS/Source/portable/GCC/ARM_CM3/portmacro.h ****  *
  15:/mnt/c/Users/Daniel/Documents/stm/ThirdParty/nucleo207/Middlewares/Third_Party/FreeRTOS/Source/portable/GCC/ARM_CM3/portmacro.h ****  * THE SOFTWARE IS PROVIDED "AS IS", WITHOUT WARRANTY OF ANY KIND, EXPRESS OR
  16:/mnt/c/Users/Daniel/Documents/stm/ThirdParty/nucleo207/Middlewares/Third_Party/FreeRTOS/Source/portable/GCC/ARM_CM3/portmacro.h ****  * IMPLIED, INCLUDING BUT NOT LIMITED TO THE WARRANTIES OF MERCHANTABILITY, FITNESS
  17:/mnt/c/Users/Daniel/Documents/stm/ThirdParty/nucleo207/Middlewares/Third_Party/FreeRTOS/Source/portable/GCC/ARM_CM3/portmacro.h ****  * FOR A PARTICULAR PURPOSE AND NONINFRINGEMENT. IN NO EVENT SHALL THE AUTHORS OR
  18:/mnt/c/Users/Daniel/Documents/stm/ThirdParty/nucleo207/Middlewares/Third_Party/FreeRTOS/Source/portable/GCC/ARM_CM3/portmacro.h ****  * COPYRIGHT HOLDERS BE LIABLE FOR ANY CLAIM, DAMAGES OR OTHER LIABILITY, WHETHER
  19:/mnt/c/Users/Daniel/Documents/stm/ThirdParty/nucleo207/Middlewares/Third_Party/FreeRTOS/Source/portable/GCC/ARM_CM3/portmacro.h ****  * IN AN ACTION OF CONTRACT, TORT OR OTHERWISE, ARISING FROM, OUT OF OR IN
  20:/mnt/c/Users/Daniel/Documents/stm/ThirdParty/nucleo207/Middlewares/Third_Party/FreeRTOS/Source/portable/GCC/ARM_CM3/portmacro.h ****  * CONNECTION WITH THE SOFTWARE OR THE USE OR OTHER DEALINGS IN THE SOFTWARE.
  21:/mnt/c/Users/Daniel/Documents/stm/ThirdParty/nucleo207/Middlewares/Third_Party/FreeRTOS/Source/portable/GCC/ARM_CM3/portmacro.h ****  *
  22:/mnt/c/Users/Daniel/Documents/stm/ThirdParty/nucleo207/Middlewares/Third_Party/FreeRTOS/Source/portable/GCC/ARM_CM3/portmacro.h ****  * http://www.FreeRTOS.org
  23:/mnt/c/Users/Daniel/Documents/stm/ThirdParty/nucleo207/Middlewares/Third_Party/FreeRTOS/Source/portable/GCC/ARM_CM3/portmacro.h ****  * http://aws.amazon.com/freertos
  24:/mnt/c/Users/Daniel/Documents/stm/ThirdParty/nucleo207/Middlewares/Third_Party/FreeRTOS/Source/portable/GCC/ARM_CM3/portmacro.h ****  *
  25:/mnt/c/Users/Daniel/Documents/stm/ThirdParty/nucleo207/Middlewares/Third_Party/FreeRTOS/Source/portable/GCC/ARM_CM3/portmacro.h ****  * 1 tab == 4 spaces!
  26:/mnt/c/Users/Daniel/Documents/stm/ThirdParty/nucleo207/Middlewares/Third_Party/FreeRTOS/Source/portable/GCC/ARM_CM3/portmacro.h ****  */
  27:/mnt/c/Users/Daniel/Documents/stm/ThirdParty/nucleo207/Middlewares/Third_Party/FreeRTOS/Source/portable/GCC/ARM_CM3/portmacro.h **** 
  28:/mnt/c/Users/Daniel/Documents/stm/ThirdParty/nucleo207/Middlewares/Third_Party/FreeRTOS/Source/portable/GCC/ARM_CM3/portmacro.h **** 
  29:/mnt/c/Users/Daniel/Documents/stm/ThirdParty/nucleo207/Middlewares/Third_Party/FreeRTOS/Source/portable/GCC/ARM_CM3/portmacro.h **** #ifndef PORTMACRO_H
  30:/mnt/c/Users/Daniel/Documents/stm/ThirdParty/nucleo207/Middlewares/Third_Party/FreeRTOS/Source/portable/GCC/ARM_CM3/portmacro.h **** #define PORTMACRO_H
  31:/mnt/c/Users/Daniel/Documents/stm/ThirdParty/nucleo207/Middlewares/Third_Party/FreeRTOS/Source/portable/GCC/ARM_CM3/portmacro.h **** 
ARM GAS  /tmp/ccI1HsHp.s 			page 14


  32:/mnt/c/Users/Daniel/Documents/stm/ThirdParty/nucleo207/Middlewares/Third_Party/FreeRTOS/Source/portable/GCC/ARM_CM3/portmacro.h **** #ifdef __cplusplus
  33:/mnt/c/Users/Daniel/Documents/stm/ThirdParty/nucleo207/Middlewares/Third_Party/FreeRTOS/Source/portable/GCC/ARM_CM3/portmacro.h **** extern "C" {
  34:/mnt/c/Users/Daniel/Documents/stm/ThirdParty/nucleo207/Middlewares/Third_Party/FreeRTOS/Source/portable/GCC/ARM_CM3/portmacro.h **** #endif
  35:/mnt/c/Users/Daniel/Documents/stm/ThirdParty/nucleo207/Middlewares/Third_Party/FreeRTOS/Source/portable/GCC/ARM_CM3/portmacro.h **** 
  36:/mnt/c/Users/Daniel/Documents/stm/ThirdParty/nucleo207/Middlewares/Third_Party/FreeRTOS/Source/portable/GCC/ARM_CM3/portmacro.h **** /*-----------------------------------------------------------
  37:/mnt/c/Users/Daniel/Documents/stm/ThirdParty/nucleo207/Middlewares/Third_Party/FreeRTOS/Source/portable/GCC/ARM_CM3/portmacro.h ****  * Port specific definitions.
  38:/mnt/c/Users/Daniel/Documents/stm/ThirdParty/nucleo207/Middlewares/Third_Party/FreeRTOS/Source/portable/GCC/ARM_CM3/portmacro.h ****  *
  39:/mnt/c/Users/Daniel/Documents/stm/ThirdParty/nucleo207/Middlewares/Third_Party/FreeRTOS/Source/portable/GCC/ARM_CM3/portmacro.h ****  * The settings in this file configure FreeRTOS correctly for the
  40:/mnt/c/Users/Daniel/Documents/stm/ThirdParty/nucleo207/Middlewares/Third_Party/FreeRTOS/Source/portable/GCC/ARM_CM3/portmacro.h ****  * given hardware and compiler.
  41:/mnt/c/Users/Daniel/Documents/stm/ThirdParty/nucleo207/Middlewares/Third_Party/FreeRTOS/Source/portable/GCC/ARM_CM3/portmacro.h ****  *
  42:/mnt/c/Users/Daniel/Documents/stm/ThirdParty/nucleo207/Middlewares/Third_Party/FreeRTOS/Source/portable/GCC/ARM_CM3/portmacro.h ****  * These settings should not be altered.
  43:/mnt/c/Users/Daniel/Documents/stm/ThirdParty/nucleo207/Middlewares/Third_Party/FreeRTOS/Source/portable/GCC/ARM_CM3/portmacro.h ****  *-----------------------------------------------------------
  44:/mnt/c/Users/Daniel/Documents/stm/ThirdParty/nucleo207/Middlewares/Third_Party/FreeRTOS/Source/portable/GCC/ARM_CM3/portmacro.h ****  */
  45:/mnt/c/Users/Daniel/Documents/stm/ThirdParty/nucleo207/Middlewares/Third_Party/FreeRTOS/Source/portable/GCC/ARM_CM3/portmacro.h **** 
  46:/mnt/c/Users/Daniel/Documents/stm/ThirdParty/nucleo207/Middlewares/Third_Party/FreeRTOS/Source/portable/GCC/ARM_CM3/portmacro.h **** /* Type definitions. */
  47:/mnt/c/Users/Daniel/Documents/stm/ThirdParty/nucleo207/Middlewares/Third_Party/FreeRTOS/Source/portable/GCC/ARM_CM3/portmacro.h **** #define portCHAR		char
  48:/mnt/c/Users/Daniel/Documents/stm/ThirdParty/nucleo207/Middlewares/Third_Party/FreeRTOS/Source/portable/GCC/ARM_CM3/portmacro.h **** #define portFLOAT		float
  49:/mnt/c/Users/Daniel/Documents/stm/ThirdParty/nucleo207/Middlewares/Third_Party/FreeRTOS/Source/portable/GCC/ARM_CM3/portmacro.h **** #define portDOUBLE		double
  50:/mnt/c/Users/Daniel/Documents/stm/ThirdParty/nucleo207/Middlewares/Third_Party/FreeRTOS/Source/portable/GCC/ARM_CM3/portmacro.h **** #define portLONG		long
  51:/mnt/c/Users/Daniel/Documents/stm/ThirdParty/nucleo207/Middlewares/Third_Party/FreeRTOS/Source/portable/GCC/ARM_CM3/portmacro.h **** #define portSHORT		short
  52:/mnt/c/Users/Daniel/Documents/stm/ThirdParty/nucleo207/Middlewares/Third_Party/FreeRTOS/Source/portable/GCC/ARM_CM3/portmacro.h **** #define portSTACK_TYPE	uint32_t
  53:/mnt/c/Users/Daniel/Documents/stm/ThirdParty/nucleo207/Middlewares/Third_Party/FreeRTOS/Source/portable/GCC/ARM_CM3/portmacro.h **** #define portBASE_TYPE	long
  54:/mnt/c/Users/Daniel/Documents/stm/ThirdParty/nucleo207/Middlewares/Third_Party/FreeRTOS/Source/portable/GCC/ARM_CM3/portmacro.h **** 
  55:/mnt/c/Users/Daniel/Documents/stm/ThirdParty/nucleo207/Middlewares/Third_Party/FreeRTOS/Source/portable/GCC/ARM_CM3/portmacro.h **** typedef portSTACK_TYPE StackType_t;
  56:/mnt/c/Users/Daniel/Documents/stm/ThirdParty/nucleo207/Middlewares/Third_Party/FreeRTOS/Source/portable/GCC/ARM_CM3/portmacro.h **** typedef long BaseType_t;
  57:/mnt/c/Users/Daniel/Documents/stm/ThirdParty/nucleo207/Middlewares/Third_Party/FreeRTOS/Source/portable/GCC/ARM_CM3/portmacro.h **** typedef unsigned long UBaseType_t;
  58:/mnt/c/Users/Daniel/Documents/stm/ThirdParty/nucleo207/Middlewares/Third_Party/FreeRTOS/Source/portable/GCC/ARM_CM3/portmacro.h **** 
  59:/mnt/c/Users/Daniel/Documents/stm/ThirdParty/nucleo207/Middlewares/Third_Party/FreeRTOS/Source/portable/GCC/ARM_CM3/portmacro.h **** #if( configUSE_16_BIT_TICKS == 1 )
  60:/mnt/c/Users/Daniel/Documents/stm/ThirdParty/nucleo207/Middlewares/Third_Party/FreeRTOS/Source/portable/GCC/ARM_CM3/portmacro.h **** 	typedef uint16_t TickType_t;
  61:/mnt/c/Users/Daniel/Documents/stm/ThirdParty/nucleo207/Middlewares/Third_Party/FreeRTOS/Source/portable/GCC/ARM_CM3/portmacro.h **** 	#define portMAX_DELAY ( TickType_t ) 0xffff
  62:/mnt/c/Users/Daniel/Documents/stm/ThirdParty/nucleo207/Middlewares/Third_Party/FreeRTOS/Source/portable/GCC/ARM_CM3/portmacro.h **** #else
  63:/mnt/c/Users/Daniel/Documents/stm/ThirdParty/nucleo207/Middlewares/Third_Party/FreeRTOS/Source/portable/GCC/ARM_CM3/portmacro.h **** 	typedef uint32_t TickType_t;
  64:/mnt/c/Users/Daniel/Documents/stm/ThirdParty/nucleo207/Middlewares/Third_Party/FreeRTOS/Source/portable/GCC/ARM_CM3/portmacro.h **** 	#define portMAX_DELAY ( TickType_t ) 0xffffffffUL
  65:/mnt/c/Users/Daniel/Documents/stm/ThirdParty/nucleo207/Middlewares/Third_Party/FreeRTOS/Source/portable/GCC/ARM_CM3/portmacro.h **** 
  66:/mnt/c/Users/Daniel/Documents/stm/ThirdParty/nucleo207/Middlewares/Third_Party/FreeRTOS/Source/portable/GCC/ARM_CM3/portmacro.h **** 	/* 32-bit tick type on a 32-bit architecture, so reads of the tick count do
  67:/mnt/c/Users/Daniel/Documents/stm/ThirdParty/nucleo207/Middlewares/Third_Party/FreeRTOS/Source/portable/GCC/ARM_CM3/portmacro.h **** 	not need to be guarded with a critical section. */
  68:/mnt/c/Users/Daniel/Documents/stm/ThirdParty/nucleo207/Middlewares/Third_Party/FreeRTOS/Source/portable/GCC/ARM_CM3/portmacro.h **** 	#define portTICK_TYPE_IS_ATOMIC 1
  69:/mnt/c/Users/Daniel/Documents/stm/ThirdParty/nucleo207/Middlewares/Third_Party/FreeRTOS/Source/portable/GCC/ARM_CM3/portmacro.h **** #endif
  70:/mnt/c/Users/Daniel/Documents/stm/ThirdParty/nucleo207/Middlewares/Third_Party/FreeRTOS/Source/portable/GCC/ARM_CM3/portmacro.h **** /*-----------------------------------------------------------*/
  71:/mnt/c/Users/Daniel/Documents/stm/ThirdParty/nucleo207/Middlewares/Third_Party/FreeRTOS/Source/portable/GCC/ARM_CM3/portmacro.h **** 
  72:/mnt/c/Users/Daniel/Documents/stm/ThirdParty/nucleo207/Middlewares/Third_Party/FreeRTOS/Source/portable/GCC/ARM_CM3/portmacro.h **** /* Architecture specifics. */
  73:/mnt/c/Users/Daniel/Documents/stm/ThirdParty/nucleo207/Middlewares/Third_Party/FreeRTOS/Source/portable/GCC/ARM_CM3/portmacro.h **** #define portSTACK_GROWTH			( -1 )
  74:/mnt/c/Users/Daniel/Documents/stm/ThirdParty/nucleo207/Middlewares/Third_Party/FreeRTOS/Source/portable/GCC/ARM_CM3/portmacro.h **** #define portTICK_PERIOD_MS			( ( TickType_t ) 1000 / configTICK_RATE_HZ )
  75:/mnt/c/Users/Daniel/Documents/stm/ThirdParty/nucleo207/Middlewares/Third_Party/FreeRTOS/Source/portable/GCC/ARM_CM3/portmacro.h **** #define portBYTE_ALIGNMENT			8
  76:/mnt/c/Users/Daniel/Documents/stm/ThirdParty/nucleo207/Middlewares/Third_Party/FreeRTOS/Source/portable/GCC/ARM_CM3/portmacro.h **** /*-----------------------------------------------------------*/
  77:/mnt/c/Users/Daniel/Documents/stm/ThirdParty/nucleo207/Middlewares/Third_Party/FreeRTOS/Source/portable/GCC/ARM_CM3/portmacro.h **** 
  78:/mnt/c/Users/Daniel/Documents/stm/ThirdParty/nucleo207/Middlewares/Third_Party/FreeRTOS/Source/portable/GCC/ARM_CM3/portmacro.h **** /* Scheduler utilities. */
  79:/mnt/c/Users/Daniel/Documents/stm/ThirdParty/nucleo207/Middlewares/Third_Party/FreeRTOS/Source/portable/GCC/ARM_CM3/portmacro.h **** #define portYIELD() 															\
  80:/mnt/c/Users/Daniel/Documents/stm/ThirdParty/nucleo207/Middlewares/Third_Party/FreeRTOS/Source/portable/GCC/ARM_CM3/portmacro.h **** {																				\
  81:/mnt/c/Users/Daniel/Documents/stm/ThirdParty/nucleo207/Middlewares/Third_Party/FreeRTOS/Source/portable/GCC/ARM_CM3/portmacro.h **** 	/* Set a PendSV to request a context switch. */								\
  82:/mnt/c/Users/Daniel/Documents/stm/ThirdParty/nucleo207/Middlewares/Third_Party/FreeRTOS/Source/portable/GCC/ARM_CM3/portmacro.h **** 	portNVIC_INT_CTRL_REG = portNVIC_PENDSVSET_BIT;								\
  83:/mnt/c/Users/Daniel/Documents/stm/ThirdParty/nucleo207/Middlewares/Third_Party/FreeRTOS/Source/portable/GCC/ARM_CM3/portmacro.h **** 																				\
  84:/mnt/c/Users/Daniel/Documents/stm/ThirdParty/nucleo207/Middlewares/Third_Party/FreeRTOS/Source/portable/GCC/ARM_CM3/portmacro.h **** 	/* Barriers are normally not required but do ensure the code is completely	\
  85:/mnt/c/Users/Daniel/Documents/stm/ThirdParty/nucleo207/Middlewares/Third_Party/FreeRTOS/Source/portable/GCC/ARM_CM3/portmacro.h **** 	within the specified behaviour for the architecture. */						\
  86:/mnt/c/Users/Daniel/Documents/stm/ThirdParty/nucleo207/Middlewares/Third_Party/FreeRTOS/Source/portable/GCC/ARM_CM3/portmacro.h **** 	__asm volatile( "dsb" ::: "memory" );										\
  87:/mnt/c/Users/Daniel/Documents/stm/ThirdParty/nucleo207/Middlewares/Third_Party/FreeRTOS/Source/portable/GCC/ARM_CM3/portmacro.h **** 	__asm volatile( "isb" );													\
  88:/mnt/c/Users/Daniel/Documents/stm/ThirdParty/nucleo207/Middlewares/Third_Party/FreeRTOS/Source/portable/GCC/ARM_CM3/portmacro.h **** }
ARM GAS  /tmp/ccI1HsHp.s 			page 15


  89:/mnt/c/Users/Daniel/Documents/stm/ThirdParty/nucleo207/Middlewares/Third_Party/FreeRTOS/Source/portable/GCC/ARM_CM3/portmacro.h **** 
  90:/mnt/c/Users/Daniel/Documents/stm/ThirdParty/nucleo207/Middlewares/Third_Party/FreeRTOS/Source/portable/GCC/ARM_CM3/portmacro.h **** #define portNVIC_INT_CTRL_REG		( * ( ( volatile uint32_t * ) 0xe000ed04 ) )
  91:/mnt/c/Users/Daniel/Documents/stm/ThirdParty/nucleo207/Middlewares/Third_Party/FreeRTOS/Source/portable/GCC/ARM_CM3/portmacro.h **** #define portNVIC_PENDSVSET_BIT		( 1UL << 28UL )
  92:/mnt/c/Users/Daniel/Documents/stm/ThirdParty/nucleo207/Middlewares/Third_Party/FreeRTOS/Source/portable/GCC/ARM_CM3/portmacro.h **** #define portEND_SWITCHING_ISR( xSwitchRequired ) if( xSwitchRequired != pdFALSE ) portYIELD()
  93:/mnt/c/Users/Daniel/Documents/stm/ThirdParty/nucleo207/Middlewares/Third_Party/FreeRTOS/Source/portable/GCC/ARM_CM3/portmacro.h **** #define portYIELD_FROM_ISR( x ) portEND_SWITCHING_ISR( x )
  94:/mnt/c/Users/Daniel/Documents/stm/ThirdParty/nucleo207/Middlewares/Third_Party/FreeRTOS/Source/portable/GCC/ARM_CM3/portmacro.h **** /*-----------------------------------------------------------*/
  95:/mnt/c/Users/Daniel/Documents/stm/ThirdParty/nucleo207/Middlewares/Third_Party/FreeRTOS/Source/portable/GCC/ARM_CM3/portmacro.h **** 
  96:/mnt/c/Users/Daniel/Documents/stm/ThirdParty/nucleo207/Middlewares/Third_Party/FreeRTOS/Source/portable/GCC/ARM_CM3/portmacro.h **** /* Critical section management. */
  97:/mnt/c/Users/Daniel/Documents/stm/ThirdParty/nucleo207/Middlewares/Third_Party/FreeRTOS/Source/portable/GCC/ARM_CM3/portmacro.h **** extern void vPortEnterCritical( void );
  98:/mnt/c/Users/Daniel/Documents/stm/ThirdParty/nucleo207/Middlewares/Third_Party/FreeRTOS/Source/portable/GCC/ARM_CM3/portmacro.h **** extern void vPortExitCritical( void );
  99:/mnt/c/Users/Daniel/Documents/stm/ThirdParty/nucleo207/Middlewares/Third_Party/FreeRTOS/Source/portable/GCC/ARM_CM3/portmacro.h **** #define portSET_INTERRUPT_MASK_FROM_ISR()		ulPortRaiseBASEPRI()
 100:/mnt/c/Users/Daniel/Documents/stm/ThirdParty/nucleo207/Middlewares/Third_Party/FreeRTOS/Source/portable/GCC/ARM_CM3/portmacro.h **** #define portCLEAR_INTERRUPT_MASK_FROM_ISR(x)	vPortSetBASEPRI(x)
 101:/mnt/c/Users/Daniel/Documents/stm/ThirdParty/nucleo207/Middlewares/Third_Party/FreeRTOS/Source/portable/GCC/ARM_CM3/portmacro.h **** #define portDISABLE_INTERRUPTS()				vPortRaiseBASEPRI()
 102:/mnt/c/Users/Daniel/Documents/stm/ThirdParty/nucleo207/Middlewares/Third_Party/FreeRTOS/Source/portable/GCC/ARM_CM3/portmacro.h **** #define portENABLE_INTERRUPTS()					vPortSetBASEPRI(0)
 103:/mnt/c/Users/Daniel/Documents/stm/ThirdParty/nucleo207/Middlewares/Third_Party/FreeRTOS/Source/portable/GCC/ARM_CM3/portmacro.h **** #define portENTER_CRITICAL()					vPortEnterCritical()
 104:/mnt/c/Users/Daniel/Documents/stm/ThirdParty/nucleo207/Middlewares/Third_Party/FreeRTOS/Source/portable/GCC/ARM_CM3/portmacro.h **** #define portEXIT_CRITICAL()						vPortExitCritical()
 105:/mnt/c/Users/Daniel/Documents/stm/ThirdParty/nucleo207/Middlewares/Third_Party/FreeRTOS/Source/portable/GCC/ARM_CM3/portmacro.h **** 
 106:/mnt/c/Users/Daniel/Documents/stm/ThirdParty/nucleo207/Middlewares/Third_Party/FreeRTOS/Source/portable/GCC/ARM_CM3/portmacro.h **** /*-----------------------------------------------------------*/
 107:/mnt/c/Users/Daniel/Documents/stm/ThirdParty/nucleo207/Middlewares/Third_Party/FreeRTOS/Source/portable/GCC/ARM_CM3/portmacro.h **** 
 108:/mnt/c/Users/Daniel/Documents/stm/ThirdParty/nucleo207/Middlewares/Third_Party/FreeRTOS/Source/portable/GCC/ARM_CM3/portmacro.h **** /* Task function macros as described on the FreeRTOS.org WEB site.  These are
 109:/mnt/c/Users/Daniel/Documents/stm/ThirdParty/nucleo207/Middlewares/Third_Party/FreeRTOS/Source/portable/GCC/ARM_CM3/portmacro.h **** not necessary for to use this port.  They are defined so the common demo files
 110:/mnt/c/Users/Daniel/Documents/stm/ThirdParty/nucleo207/Middlewares/Third_Party/FreeRTOS/Source/portable/GCC/ARM_CM3/portmacro.h **** (which build with all the ports) will build. */
 111:/mnt/c/Users/Daniel/Documents/stm/ThirdParty/nucleo207/Middlewares/Third_Party/FreeRTOS/Source/portable/GCC/ARM_CM3/portmacro.h **** #define portTASK_FUNCTION_PROTO( vFunction, pvParameters ) void vFunction( void *pvParameters )
 112:/mnt/c/Users/Daniel/Documents/stm/ThirdParty/nucleo207/Middlewares/Third_Party/FreeRTOS/Source/portable/GCC/ARM_CM3/portmacro.h **** #define portTASK_FUNCTION( vFunction, pvParameters ) void vFunction( void *pvParameters )
 113:/mnt/c/Users/Daniel/Documents/stm/ThirdParty/nucleo207/Middlewares/Third_Party/FreeRTOS/Source/portable/GCC/ARM_CM3/portmacro.h **** /*-----------------------------------------------------------*/
 114:/mnt/c/Users/Daniel/Documents/stm/ThirdParty/nucleo207/Middlewares/Third_Party/FreeRTOS/Source/portable/GCC/ARM_CM3/portmacro.h **** 
 115:/mnt/c/Users/Daniel/Documents/stm/ThirdParty/nucleo207/Middlewares/Third_Party/FreeRTOS/Source/portable/GCC/ARM_CM3/portmacro.h **** /* Tickless idle/low power functionality. */
 116:/mnt/c/Users/Daniel/Documents/stm/ThirdParty/nucleo207/Middlewares/Third_Party/FreeRTOS/Source/portable/GCC/ARM_CM3/portmacro.h **** #ifndef portSUPPRESS_TICKS_AND_SLEEP
 117:/mnt/c/Users/Daniel/Documents/stm/ThirdParty/nucleo207/Middlewares/Third_Party/FreeRTOS/Source/portable/GCC/ARM_CM3/portmacro.h **** 	extern void vPortSuppressTicksAndSleep( TickType_t xExpectedIdleTime );
 118:/mnt/c/Users/Daniel/Documents/stm/ThirdParty/nucleo207/Middlewares/Third_Party/FreeRTOS/Source/portable/GCC/ARM_CM3/portmacro.h **** 	#define portSUPPRESS_TICKS_AND_SLEEP( xExpectedIdleTime ) vPortSuppressTicksAndSleep( xExpectedIdl
 119:/mnt/c/Users/Daniel/Documents/stm/ThirdParty/nucleo207/Middlewares/Third_Party/FreeRTOS/Source/portable/GCC/ARM_CM3/portmacro.h **** #endif
 120:/mnt/c/Users/Daniel/Documents/stm/ThirdParty/nucleo207/Middlewares/Third_Party/FreeRTOS/Source/portable/GCC/ARM_CM3/portmacro.h **** /*-----------------------------------------------------------*/
 121:/mnt/c/Users/Daniel/Documents/stm/ThirdParty/nucleo207/Middlewares/Third_Party/FreeRTOS/Source/portable/GCC/ARM_CM3/portmacro.h **** 
 122:/mnt/c/Users/Daniel/Documents/stm/ThirdParty/nucleo207/Middlewares/Third_Party/FreeRTOS/Source/portable/GCC/ARM_CM3/portmacro.h **** /* Architecture specific optimisations. */
 123:/mnt/c/Users/Daniel/Documents/stm/ThirdParty/nucleo207/Middlewares/Third_Party/FreeRTOS/Source/portable/GCC/ARM_CM3/portmacro.h **** #ifndef configUSE_PORT_OPTIMISED_TASK_SELECTION
 124:/mnt/c/Users/Daniel/Documents/stm/ThirdParty/nucleo207/Middlewares/Third_Party/FreeRTOS/Source/portable/GCC/ARM_CM3/portmacro.h **** 	#define configUSE_PORT_OPTIMISED_TASK_SELECTION 1
 125:/mnt/c/Users/Daniel/Documents/stm/ThirdParty/nucleo207/Middlewares/Third_Party/FreeRTOS/Source/portable/GCC/ARM_CM3/portmacro.h **** #endif
 126:/mnt/c/Users/Daniel/Documents/stm/ThirdParty/nucleo207/Middlewares/Third_Party/FreeRTOS/Source/portable/GCC/ARM_CM3/portmacro.h **** 
 127:/mnt/c/Users/Daniel/Documents/stm/ThirdParty/nucleo207/Middlewares/Third_Party/FreeRTOS/Source/portable/GCC/ARM_CM3/portmacro.h **** #if configUSE_PORT_OPTIMISED_TASK_SELECTION == 1
 128:/mnt/c/Users/Daniel/Documents/stm/ThirdParty/nucleo207/Middlewares/Third_Party/FreeRTOS/Source/portable/GCC/ARM_CM3/portmacro.h **** 
 129:/mnt/c/Users/Daniel/Documents/stm/ThirdParty/nucleo207/Middlewares/Third_Party/FreeRTOS/Source/portable/GCC/ARM_CM3/portmacro.h **** 	/* Generic helper function. */
 130:/mnt/c/Users/Daniel/Documents/stm/ThirdParty/nucleo207/Middlewares/Third_Party/FreeRTOS/Source/portable/GCC/ARM_CM3/portmacro.h **** 	__attribute__( ( always_inline ) ) static inline uint8_t ucPortCountLeadingZeros( uint32_t ulBitma
 131:/mnt/c/Users/Daniel/Documents/stm/ThirdParty/nucleo207/Middlewares/Third_Party/FreeRTOS/Source/portable/GCC/ARM_CM3/portmacro.h **** 	{
 132:/mnt/c/Users/Daniel/Documents/stm/ThirdParty/nucleo207/Middlewares/Third_Party/FreeRTOS/Source/portable/GCC/ARM_CM3/portmacro.h **** 	uint8_t ucReturn;
 133:/mnt/c/Users/Daniel/Documents/stm/ThirdParty/nucleo207/Middlewares/Third_Party/FreeRTOS/Source/portable/GCC/ARM_CM3/portmacro.h **** 
 134:/mnt/c/Users/Daniel/Documents/stm/ThirdParty/nucleo207/Middlewares/Third_Party/FreeRTOS/Source/portable/GCC/ARM_CM3/portmacro.h **** 		__asm volatile ( "clz %0, %1" : "=r" ( ucReturn ) : "r" ( ulBitmap ) : "memory" );
 135:/mnt/c/Users/Daniel/Documents/stm/ThirdParty/nucleo207/Middlewares/Third_Party/FreeRTOS/Source/portable/GCC/ARM_CM3/portmacro.h **** 		return ucReturn;
 136:/mnt/c/Users/Daniel/Documents/stm/ThirdParty/nucleo207/Middlewares/Third_Party/FreeRTOS/Source/portable/GCC/ARM_CM3/portmacro.h **** 	}
 137:/mnt/c/Users/Daniel/Documents/stm/ThirdParty/nucleo207/Middlewares/Third_Party/FreeRTOS/Source/portable/GCC/ARM_CM3/portmacro.h **** 
 138:/mnt/c/Users/Daniel/Documents/stm/ThirdParty/nucleo207/Middlewares/Third_Party/FreeRTOS/Source/portable/GCC/ARM_CM3/portmacro.h **** 	/* Check the configuration. */
 139:/mnt/c/Users/Daniel/Documents/stm/ThirdParty/nucleo207/Middlewares/Third_Party/FreeRTOS/Source/portable/GCC/ARM_CM3/portmacro.h **** 	#if( configMAX_PRIORITIES > 32 )
 140:/mnt/c/Users/Daniel/Documents/stm/ThirdParty/nucleo207/Middlewares/Third_Party/FreeRTOS/Source/portable/GCC/ARM_CM3/portmacro.h **** 		#error configUSE_PORT_OPTIMISED_TASK_SELECTION can only be set to 1 when configMAX_PRIORITIES is 
 141:/mnt/c/Users/Daniel/Documents/stm/ThirdParty/nucleo207/Middlewares/Third_Party/FreeRTOS/Source/portable/GCC/ARM_CM3/portmacro.h **** 	#endif
 142:/mnt/c/Users/Daniel/Documents/stm/ThirdParty/nucleo207/Middlewares/Third_Party/FreeRTOS/Source/portable/GCC/ARM_CM3/portmacro.h **** 
 143:/mnt/c/Users/Daniel/Documents/stm/ThirdParty/nucleo207/Middlewares/Third_Party/FreeRTOS/Source/portable/GCC/ARM_CM3/portmacro.h **** 	/* Store/clear the ready priorities in a bit map. */
 144:/mnt/c/Users/Daniel/Documents/stm/ThirdParty/nucleo207/Middlewares/Third_Party/FreeRTOS/Source/portable/GCC/ARM_CM3/portmacro.h **** 	#define portRECORD_READY_PRIORITY( uxPriority, uxReadyPriorities ) ( uxReadyPriorities ) |= ( 1UL 
 145:/mnt/c/Users/Daniel/Documents/stm/ThirdParty/nucleo207/Middlewares/Third_Party/FreeRTOS/Source/portable/GCC/ARM_CM3/portmacro.h **** 	#define portRESET_READY_PRIORITY( uxPriority, uxReadyPriorities ) ( uxReadyPriorities ) &= ~( 1UL 
ARM GAS  /tmp/ccI1HsHp.s 			page 16


 146:/mnt/c/Users/Daniel/Documents/stm/ThirdParty/nucleo207/Middlewares/Third_Party/FreeRTOS/Source/portable/GCC/ARM_CM3/portmacro.h **** 
 147:/mnt/c/Users/Daniel/Documents/stm/ThirdParty/nucleo207/Middlewares/Third_Party/FreeRTOS/Source/portable/GCC/ARM_CM3/portmacro.h **** 	/*-----------------------------------------------------------*/
 148:/mnt/c/Users/Daniel/Documents/stm/ThirdParty/nucleo207/Middlewares/Third_Party/FreeRTOS/Source/portable/GCC/ARM_CM3/portmacro.h **** 
 149:/mnt/c/Users/Daniel/Documents/stm/ThirdParty/nucleo207/Middlewares/Third_Party/FreeRTOS/Source/portable/GCC/ARM_CM3/portmacro.h **** 	#define portGET_HIGHEST_PRIORITY( uxTopPriority, uxReadyPriorities ) uxTopPriority = ( 31UL - ( ui
 150:/mnt/c/Users/Daniel/Documents/stm/ThirdParty/nucleo207/Middlewares/Third_Party/FreeRTOS/Source/portable/GCC/ARM_CM3/portmacro.h **** 
 151:/mnt/c/Users/Daniel/Documents/stm/ThirdParty/nucleo207/Middlewares/Third_Party/FreeRTOS/Source/portable/GCC/ARM_CM3/portmacro.h **** #endif /* configUSE_PORT_OPTIMISED_TASK_SELECTION */
 152:/mnt/c/Users/Daniel/Documents/stm/ThirdParty/nucleo207/Middlewares/Third_Party/FreeRTOS/Source/portable/GCC/ARM_CM3/portmacro.h **** 
 153:/mnt/c/Users/Daniel/Documents/stm/ThirdParty/nucleo207/Middlewares/Third_Party/FreeRTOS/Source/portable/GCC/ARM_CM3/portmacro.h **** /*-----------------------------------------------------------*/
 154:/mnt/c/Users/Daniel/Documents/stm/ThirdParty/nucleo207/Middlewares/Third_Party/FreeRTOS/Source/portable/GCC/ARM_CM3/portmacro.h **** 
 155:/mnt/c/Users/Daniel/Documents/stm/ThirdParty/nucleo207/Middlewares/Third_Party/FreeRTOS/Source/portable/GCC/ARM_CM3/portmacro.h **** #ifdef configASSERT
 156:/mnt/c/Users/Daniel/Documents/stm/ThirdParty/nucleo207/Middlewares/Third_Party/FreeRTOS/Source/portable/GCC/ARM_CM3/portmacro.h **** 	void vPortValidateInterruptPriority( void );
 157:/mnt/c/Users/Daniel/Documents/stm/ThirdParty/nucleo207/Middlewares/Third_Party/FreeRTOS/Source/portable/GCC/ARM_CM3/portmacro.h **** 	#define portASSERT_IF_INTERRUPT_PRIORITY_INVALID() 	vPortValidateInterruptPriority()
 158:/mnt/c/Users/Daniel/Documents/stm/ThirdParty/nucleo207/Middlewares/Third_Party/FreeRTOS/Source/portable/GCC/ARM_CM3/portmacro.h **** #endif
 159:/mnt/c/Users/Daniel/Documents/stm/ThirdParty/nucleo207/Middlewares/Third_Party/FreeRTOS/Source/portable/GCC/ARM_CM3/portmacro.h **** 
 160:/mnt/c/Users/Daniel/Documents/stm/ThirdParty/nucleo207/Middlewares/Third_Party/FreeRTOS/Source/portable/GCC/ARM_CM3/portmacro.h **** /* portNOP() is not required by this port. */
 161:/mnt/c/Users/Daniel/Documents/stm/ThirdParty/nucleo207/Middlewares/Third_Party/FreeRTOS/Source/portable/GCC/ARM_CM3/portmacro.h **** #define portNOP()
 162:/mnt/c/Users/Daniel/Documents/stm/ThirdParty/nucleo207/Middlewares/Third_Party/FreeRTOS/Source/portable/GCC/ARM_CM3/portmacro.h **** 
 163:/mnt/c/Users/Daniel/Documents/stm/ThirdParty/nucleo207/Middlewares/Third_Party/FreeRTOS/Source/portable/GCC/ARM_CM3/portmacro.h **** #define portINLINE	__inline
 164:/mnt/c/Users/Daniel/Documents/stm/ThirdParty/nucleo207/Middlewares/Third_Party/FreeRTOS/Source/portable/GCC/ARM_CM3/portmacro.h **** 
 165:/mnt/c/Users/Daniel/Documents/stm/ThirdParty/nucleo207/Middlewares/Third_Party/FreeRTOS/Source/portable/GCC/ARM_CM3/portmacro.h **** #ifndef portFORCE_INLINE
 166:/mnt/c/Users/Daniel/Documents/stm/ThirdParty/nucleo207/Middlewares/Third_Party/FreeRTOS/Source/portable/GCC/ARM_CM3/portmacro.h **** 	#define portFORCE_INLINE inline __attribute__(( always_inline))
 167:/mnt/c/Users/Daniel/Documents/stm/ThirdParty/nucleo207/Middlewares/Third_Party/FreeRTOS/Source/portable/GCC/ARM_CM3/portmacro.h **** #endif
 168:/mnt/c/Users/Daniel/Documents/stm/ThirdParty/nucleo207/Middlewares/Third_Party/FreeRTOS/Source/portable/GCC/ARM_CM3/portmacro.h **** 
 169:/mnt/c/Users/Daniel/Documents/stm/ThirdParty/nucleo207/Middlewares/Third_Party/FreeRTOS/Source/portable/GCC/ARM_CM3/portmacro.h **** portFORCE_INLINE static BaseType_t xPortIsInsideInterrupt( void )
 170:/mnt/c/Users/Daniel/Documents/stm/ThirdParty/nucleo207/Middlewares/Third_Party/FreeRTOS/Source/portable/GCC/ARM_CM3/portmacro.h **** {
 171:/mnt/c/Users/Daniel/Documents/stm/ThirdParty/nucleo207/Middlewares/Third_Party/FreeRTOS/Source/portable/GCC/ARM_CM3/portmacro.h **** uint32_t ulCurrentInterrupt;
 172:/mnt/c/Users/Daniel/Documents/stm/ThirdParty/nucleo207/Middlewares/Third_Party/FreeRTOS/Source/portable/GCC/ARM_CM3/portmacro.h **** BaseType_t xReturn;
 173:/mnt/c/Users/Daniel/Documents/stm/ThirdParty/nucleo207/Middlewares/Third_Party/FreeRTOS/Source/portable/GCC/ARM_CM3/portmacro.h **** 
 174:/mnt/c/Users/Daniel/Documents/stm/ThirdParty/nucleo207/Middlewares/Third_Party/FreeRTOS/Source/portable/GCC/ARM_CM3/portmacro.h **** 	/* Obtain the number of the currently executing interrupt. */
 175:/mnt/c/Users/Daniel/Documents/stm/ThirdParty/nucleo207/Middlewares/Third_Party/FreeRTOS/Source/portable/GCC/ARM_CM3/portmacro.h **** 	__asm volatile( "mrs %0, ipsr" : "=r"( ulCurrentInterrupt ) :: "memory" );
 176:/mnt/c/Users/Daniel/Documents/stm/ThirdParty/nucleo207/Middlewares/Third_Party/FreeRTOS/Source/portable/GCC/ARM_CM3/portmacro.h **** 
 177:/mnt/c/Users/Daniel/Documents/stm/ThirdParty/nucleo207/Middlewares/Third_Party/FreeRTOS/Source/portable/GCC/ARM_CM3/portmacro.h **** 	if( ulCurrentInterrupt == 0 )
 178:/mnt/c/Users/Daniel/Documents/stm/ThirdParty/nucleo207/Middlewares/Third_Party/FreeRTOS/Source/portable/GCC/ARM_CM3/portmacro.h **** 	{
 179:/mnt/c/Users/Daniel/Documents/stm/ThirdParty/nucleo207/Middlewares/Third_Party/FreeRTOS/Source/portable/GCC/ARM_CM3/portmacro.h **** 		xReturn = pdFALSE;
 180:/mnt/c/Users/Daniel/Documents/stm/ThirdParty/nucleo207/Middlewares/Third_Party/FreeRTOS/Source/portable/GCC/ARM_CM3/portmacro.h **** 	}
 181:/mnt/c/Users/Daniel/Documents/stm/ThirdParty/nucleo207/Middlewares/Third_Party/FreeRTOS/Source/portable/GCC/ARM_CM3/portmacro.h **** 	else
 182:/mnt/c/Users/Daniel/Documents/stm/ThirdParty/nucleo207/Middlewares/Third_Party/FreeRTOS/Source/portable/GCC/ARM_CM3/portmacro.h **** 	{
 183:/mnt/c/Users/Daniel/Documents/stm/ThirdParty/nucleo207/Middlewares/Third_Party/FreeRTOS/Source/portable/GCC/ARM_CM3/portmacro.h **** 		xReturn = pdTRUE;
 184:/mnt/c/Users/Daniel/Documents/stm/ThirdParty/nucleo207/Middlewares/Third_Party/FreeRTOS/Source/portable/GCC/ARM_CM3/portmacro.h **** 	}
 185:/mnt/c/Users/Daniel/Documents/stm/ThirdParty/nucleo207/Middlewares/Third_Party/FreeRTOS/Source/portable/GCC/ARM_CM3/portmacro.h **** 
 186:/mnt/c/Users/Daniel/Documents/stm/ThirdParty/nucleo207/Middlewares/Third_Party/FreeRTOS/Source/portable/GCC/ARM_CM3/portmacro.h **** 	return xReturn;
 187:/mnt/c/Users/Daniel/Documents/stm/ThirdParty/nucleo207/Middlewares/Third_Party/FreeRTOS/Source/portable/GCC/ARM_CM3/portmacro.h **** }
 188:/mnt/c/Users/Daniel/Documents/stm/ThirdParty/nucleo207/Middlewares/Third_Party/FreeRTOS/Source/portable/GCC/ARM_CM3/portmacro.h **** 
 189:/mnt/c/Users/Daniel/Documents/stm/ThirdParty/nucleo207/Middlewares/Third_Party/FreeRTOS/Source/portable/GCC/ARM_CM3/portmacro.h **** /*-----------------------------------------------------------*/
 190:/mnt/c/Users/Daniel/Documents/stm/ThirdParty/nucleo207/Middlewares/Third_Party/FreeRTOS/Source/portable/GCC/ARM_CM3/portmacro.h **** 
 191:/mnt/c/Users/Daniel/Documents/stm/ThirdParty/nucleo207/Middlewares/Third_Party/FreeRTOS/Source/portable/GCC/ARM_CM3/portmacro.h **** portFORCE_INLINE static void vPortRaiseBASEPRI( void )
 192:/mnt/c/Users/Daniel/Documents/stm/ThirdParty/nucleo207/Middlewares/Third_Party/FreeRTOS/Source/portable/GCC/ARM_CM3/portmacro.h **** {
 193:/mnt/c/Users/Daniel/Documents/stm/ThirdParty/nucleo207/Middlewares/Third_Party/FreeRTOS/Source/portable/GCC/ARM_CM3/portmacro.h **** uint32_t ulNewBASEPRI;
 194:/mnt/c/Users/Daniel/Documents/stm/ThirdParty/nucleo207/Middlewares/Third_Party/FreeRTOS/Source/portable/GCC/ARM_CM3/portmacro.h **** 
 195:/mnt/c/Users/Daniel/Documents/stm/ThirdParty/nucleo207/Middlewares/Third_Party/FreeRTOS/Source/portable/GCC/ARM_CM3/portmacro.h **** 	__asm volatile
 267              		.loc 2 195 0
 268              		.syntax unified
 269              	@ 195 "/mnt/c/Users/Daniel/Documents/stm/ThirdParty/nucleo207/Middlewares/Third_Party/FreeRTOS/Sour
 270 002c 4FF05003 			mov r3, #80												
 271 0030 83F31188 		msr basepri, r3											
 272 0034 BFF36F8F 		isb														
 273 0038 BFF34F8F 		dsb														
ARM GAS  /tmp/ccI1HsHp.s 			page 17


 274              	
 275              	@ 0 "" 2
 276              	.LVL29:
 277              		.thumb
 278              		.syntax unified
 279              	.L21:
 280 003c FEE7     		b	.L21
 281              	.L36:
 282              	.LBE13:
 283              	.LBE12:
 124:/mnt/c/Users/Daniel/Documents/stm/ThirdParty/nucleo207/Middlewares/Third_Party/FreeRTOS/Source/portable/MemMang/heap_4.c **** 		}
 284              		.loc 1 124 0
 285 003e FFF7FEFF 		bl	prvHeapInit
 286              	.LVL30:
 287 0042 E4E7     		b	.L18
 288              	.L20:
 161:/mnt/c/Users/Daniel/Documents/stm/ThirdParty/nucleo207/Middlewares/Third_Party/FreeRTOS/Source/portable/MemMang/heap_4.c **** 			{
 289              		.loc 1 161 0
 290 0044 002C     		cmp	r4, #0
 291 0046 4CD0     		beq	.L31
 161:/mnt/c/Users/Daniel/Documents/stm/ThirdParty/nucleo207/Middlewares/Third_Party/FreeRTOS/Source/portable/MemMang/heap_4.c **** 			{
 292              		.loc 1 161 0 is_stmt 0 discriminator 1
 293 0048 2C4B     		ldr	r3, .L37+8
 294 004a 1B68     		ldr	r3, [r3]
 295 004c A342     		cmp	r3, r4
 296 004e 4AD3     		bcc	.L32
 297              	.LVL31:
 166:/mnt/c/Users/Daniel/Documents/stm/ThirdParty/nucleo207/Middlewares/Third_Party/FreeRTOS/Source/portable/MemMang/heap_4.c **** 				while( ( pxBlock->xBlockSize < xWantedSize ) && ( pxBlock->pxNextFreeBlock != NULL ) )
 298              		.loc 1 166 0 is_stmt 1
 299 0050 2B4B     		ldr	r3, .L37+12
 300 0052 1D68     		ldr	r5, [r3]
 301              	.LVL32:
 167:/mnt/c/Users/Daniel/Documents/stm/ThirdParty/nucleo207/Middlewares/Third_Party/FreeRTOS/Source/portable/MemMang/heap_4.c **** 				{
 302              		.loc 1 167 0
 303 0054 01E0     		b	.L23
 304              	.LVL33:
 305              	.L33:
 169:/mnt/c/Users/Daniel/Documents/stm/ThirdParty/nucleo207/Middlewares/Third_Party/FreeRTOS/Source/portable/MemMang/heap_4.c **** 					pxBlock = pxBlock->pxNextFreeBlock;
 306              		.loc 1 169 0
 307 0056 2B46     		mov	r3, r5
 308              	.LVL34:
 170:/mnt/c/Users/Daniel/Documents/stm/ThirdParty/nucleo207/Middlewares/Third_Party/FreeRTOS/Source/portable/MemMang/heap_4.c **** 				}
 309              		.loc 1 170 0
 310 0058 1546     		mov	r5, r2
 311              	.LVL35:
 312              	.L23:
 167:/mnt/c/Users/Daniel/Documents/stm/ThirdParty/nucleo207/Middlewares/Third_Party/FreeRTOS/Source/portable/MemMang/heap_4.c **** 				{
 313              		.loc 1 167 0
 314 005a 6A68     		ldr	r2, [r5, #4]
 315 005c A242     		cmp	r2, r4
 316 005e 02D2     		bcs	.L22
 167:/mnt/c/Users/Daniel/Documents/stm/ThirdParty/nucleo207/Middlewares/Third_Party/FreeRTOS/Source/portable/MemMang/heap_4.c **** 				{
 317              		.loc 1 167 0 is_stmt 0 discriminator 1
 318 0060 2A68     		ldr	r2, [r5]
 319 0062 002A     		cmp	r2, #0
 320 0064 F7D1     		bne	.L33
 321              	.L22:
ARM GAS  /tmp/ccI1HsHp.s 			page 18


 175:/mnt/c/Users/Daniel/Documents/stm/ThirdParty/nucleo207/Middlewares/Third_Party/FreeRTOS/Source/portable/MemMang/heap_4.c **** 				{
 322              		.loc 1 175 0 is_stmt 1
 323 0066 234A     		ldr	r2, .L37
 324 0068 1268     		ldr	r2, [r2]
 325 006a AA42     		cmp	r2, r5
 326 006c 3DD0     		beq	.L34
 179:/mnt/c/Users/Daniel/Documents/stm/ThirdParty/nucleo207/Middlewares/Third_Party/FreeRTOS/Source/portable/MemMang/heap_4.c **** 
 327              		.loc 1 179 0
 328 006e 1E68     		ldr	r6, [r3]
 329 0070 0836     		adds	r6, r6, #8
 330              	.LVL36:
 183:/mnt/c/Users/Daniel/Documents/stm/ThirdParty/nucleo207/Middlewares/Third_Party/FreeRTOS/Source/portable/MemMang/heap_4.c **** 
 331              		.loc 1 183 0
 332 0072 2A68     		ldr	r2, [r5]
 333 0074 1A60     		str	r2, [r3]
 187:/mnt/c/Users/Daniel/Documents/stm/ThirdParty/nucleo207/Middlewares/Third_Party/FreeRTOS/Source/portable/MemMang/heap_4.c **** 					{
 334              		.loc 1 187 0
 335 0076 6B68     		ldr	r3, [r5, #4]
 336              	.LVL37:
 337 0078 1B1B     		subs	r3, r3, r4
 338 007a 102B     		cmp	r3, #16
 339 007c 10D9     		bls	.L24
 193:/mnt/c/Users/Daniel/Documents/stm/ThirdParty/nucleo207/Middlewares/Third_Party/FreeRTOS/Source/portable/MemMang/heap_4.c **** 						configASSERT( ( ( ( size_t ) pxNewBlockLink ) & portBYTE_ALIGNMENT_MASK ) == 0 );
 340              		.loc 1 193 0
 341 007e 2819     		adds	r0, r5, r4
 342              	.LVL38:
 194:/mnt/c/Users/Daniel/Documents/stm/ThirdParty/nucleo207/Middlewares/Third_Party/FreeRTOS/Source/portable/MemMang/heap_4.c **** 
 343              		.loc 1 194 0
 344 0080 10F0070F 		tst	r0, #7
 345 0084 08D0     		beq	.L25
 346              	.LBB14:
 347              	.LBB15:
 348              		.loc 2 195 0
 349              		.syntax unified
 350              	@ 195 "/mnt/c/Users/Daniel/Documents/stm/ThirdParty/nucleo207/Middlewares/Third_Party/FreeRTOS/Sour
 351 0086 4FF05003 			mov r3, #80												
 352 008a 83F31188 		msr basepri, r3											
 353 008e BFF36F8F 		isb														
 354 0092 BFF34F8F 		dsb														
 355              	
 356              	@ 0 "" 2
 357              	.LVL39:
 358              		.thumb
 359              		.syntax unified
 360              	.L26:
 361 0096 FEE7     		b	.L26
 362              	.L25:
 363              	.LBE15:
 364              	.LBE14:
 198:/mnt/c/Users/Daniel/Documents/stm/ThirdParty/nucleo207/Middlewares/Third_Party/FreeRTOS/Source/portable/MemMang/heap_4.c **** 						pxBlock->xBlockSize = xWantedSize;
 365              		.loc 1 198 0
 366 0098 4360     		str	r3, [r0, #4]
 199:/mnt/c/Users/Daniel/Documents/stm/ThirdParty/nucleo207/Middlewares/Third_Party/FreeRTOS/Source/portable/MemMang/heap_4.c **** 
 367              		.loc 1 199 0
 368 009a 6C60     		str	r4, [r5, #4]
 202:/mnt/c/Users/Daniel/Documents/stm/ThirdParty/nucleo207/Middlewares/Third_Party/FreeRTOS/Source/portable/MemMang/heap_4.c **** 					}
 369              		.loc 1 202 0
ARM GAS  /tmp/ccI1HsHp.s 			page 19


 370 009c FFF7FEFF 		bl	prvInsertBlockIntoFreeList
 371              	.LVL40:
 372              	.L24:
 209:/mnt/c/Users/Daniel/Documents/stm/ThirdParty/nucleo207/Middlewares/Third_Party/FreeRTOS/Source/portable/MemMang/heap_4.c **** 
 373              		.loc 1 209 0
 374 00a0 6A68     		ldr	r2, [r5, #4]
 375 00a2 1649     		ldr	r1, .L37+8
 376 00a4 0B68     		ldr	r3, [r1]
 377 00a6 9B1A     		subs	r3, r3, r2
 378 00a8 0B60     		str	r3, [r1]
 211:/mnt/c/Users/Daniel/Documents/stm/ThirdParty/nucleo207/Middlewares/Third_Party/FreeRTOS/Source/portable/MemMang/heap_4.c **** 					{
 379              		.loc 1 211 0
 380 00aa 1649     		ldr	r1, .L37+16
 381 00ac 0968     		ldr	r1, [r1]
 382 00ae 8B42     		cmp	r3, r1
 383 00b0 01D2     		bcs	.L27
 213:/mnt/c/Users/Daniel/Documents/stm/ThirdParty/nucleo207/Middlewares/Third_Party/FreeRTOS/Source/portable/MemMang/heap_4.c **** 					}
 384              		.loc 1 213 0
 385 00b2 1449     		ldr	r1, .L37+16
 386 00b4 0B60     		str	r3, [r1]
 387              	.L27:
 222:/mnt/c/Users/Daniel/Documents/stm/ThirdParty/nucleo207/Middlewares/Third_Party/FreeRTOS/Source/portable/MemMang/heap_4.c **** 					pxBlock->pxNextFreeBlock = NULL;
 388              		.loc 1 222 0
 389 00b6 104B     		ldr	r3, .L37+4
 390 00b8 1B68     		ldr	r3, [r3]
 391 00ba 1343     		orrs	r3, r3, r2
 392 00bc 6B60     		str	r3, [r5, #4]
 223:/mnt/c/Users/Daniel/Documents/stm/ThirdParty/nucleo207/Middlewares/Third_Party/FreeRTOS/Source/portable/MemMang/heap_4.c **** 				}
 393              		.loc 1 223 0
 394 00be 0023     		movs	r3, #0
 395 00c0 2B60     		str	r3, [r5]
 396              	.LVL41:
 397              	.L19:
 242:/mnt/c/Users/Daniel/Documents/stm/ThirdParty/nucleo207/Middlewares/Third_Party/FreeRTOS/Source/portable/MemMang/heap_4.c **** 
 398              		.loc 1 242 0
 399 00c2 FFF7FEFF 		bl	xTaskResumeAll
 400              	.LVL42:
 258:/mnt/c/Users/Daniel/Documents/stm/ThirdParty/nucleo207/Middlewares/Third_Party/FreeRTOS/Source/portable/MemMang/heap_4.c **** 	return pvReturn;
 401              		.loc 1 258 0
 402 00c6 16F0070F 		tst	r6, #7
 403 00ca 10D0     		beq	.L17
 404              	.LBB16:
 405              	.LBB17:
 406              		.loc 2 195 0
 407              		.syntax unified
 408              	@ 195 "/mnt/c/Users/Daniel/Documents/stm/ThirdParty/nucleo207/Middlewares/Third_Party/FreeRTOS/Sour
 409 00cc 4FF05003 			mov r3, #80												
 410 00d0 83F31188 		msr basepri, r3											
 411 00d4 BFF36F8F 		isb														
 412 00d8 BFF34F8F 		dsb														
 413              	
 414              	@ 0 "" 2
 415              	.LVL43:
 416              		.thumb
 417              		.syntax unified
 418              	.L29:
 419 00dc FEE7     		b	.L29
ARM GAS  /tmp/ccI1HsHp.s 			page 20


 420              	.LVL44:
 421              	.L30:
 422              	.LBE17:
 423              	.LBE16:
 116:/mnt/c/Users/Daniel/Documents/stm/ThirdParty/nucleo207/Middlewares/Third_Party/FreeRTOS/Source/portable/MemMang/heap_4.c **** 
 424              		.loc 1 116 0
 425 00de 0026     		movs	r6, #0
 426 00e0 EFE7     		b	.L19
 427              	.L31:
 428 00e2 0026     		movs	r6, #0
 429 00e4 EDE7     		b	.L19
 430              	.L32:
 431 00e6 0026     		movs	r6, #0
 432 00e8 EBE7     		b	.L19
 433              	.LVL45:
 434              	.L34:
 435 00ea 0026     		movs	r6, #0
 436 00ec E9E7     		b	.L19
 437              	.LVL46:
 438              	.L17:
 260:/mnt/c/Users/Daniel/Documents/stm/ThirdParty/nucleo207/Middlewares/Third_Party/FreeRTOS/Source/portable/MemMang/heap_4.c **** /*-----------------------------------------------------------*/
 439              		.loc 1 260 0
 440 00ee 3046     		mov	r0, r6
 441 00f0 70BD     		pop	{r4, r5, r6, pc}
 442              	.LVL47:
 443              	.L38:
 444 00f2 00BF     		.align	2
 445              	.L37:
 446 00f4 00000000 		.word	.LANCHOR1
 447 00f8 00000000 		.word	.LANCHOR4
 448 00fc 00000000 		.word	.LANCHOR3
 449 0100 00000000 		.word	.LANCHOR0
 450 0104 00000000 		.word	.LANCHOR2
 451              		.cfi_endproc
 452              	.LFE5:
 454              		.section	.text.vPortFree,"ax",%progbits
 455              		.align	1
 456              		.global	vPortFree
 457              		.syntax unified
 458              		.thumb
 459              		.thumb_func
 460              		.fpu softvfp
 462              	vPortFree:
 463              	.LFB6:
 264:/mnt/c/Users/Daniel/Documents/stm/ThirdParty/nucleo207/Middlewares/Third_Party/FreeRTOS/Source/portable/MemMang/heap_4.c **** uint8_t *puc = ( uint8_t * ) pv;
 464              		.loc 1 264 0
 465              		.cfi_startproc
 466              		@ args = 0, pretend = 0, frame = 0
 467              		@ frame_needed = 0, uses_anonymous_args = 0
 468              	.LVL48:
 268:/mnt/c/Users/Daniel/Documents/stm/ThirdParty/nucleo207/Middlewares/Third_Party/FreeRTOS/Source/portable/MemMang/heap_4.c **** 	{
 469              		.loc 1 268 0
 470 0000 80B3     		cbz	r0, .L46
 264:/mnt/c/Users/Daniel/Documents/stm/ThirdParty/nucleo207/Middlewares/Third_Party/FreeRTOS/Source/portable/MemMang/heap_4.c **** uint8_t *puc = ( uint8_t * ) pv;
 471              		.loc 1 264 0
 472 0002 38B5     		push	{r3, r4, r5, lr}
 473              	.LCFI4:
ARM GAS  /tmp/ccI1HsHp.s 			page 21


 474              		.cfi_def_cfa_offset 16
 475              		.cfi_offset 3, -16
 476              		.cfi_offset 4, -12
 477              		.cfi_offset 5, -8
 478              		.cfi_offset 14, -4
 479 0004 0446     		mov	r4, r0
 272:/mnt/c/Users/Daniel/Documents/stm/ThirdParty/nucleo207/Middlewares/Third_Party/FreeRTOS/Source/portable/MemMang/heap_4.c **** 
 480              		.loc 1 272 0
 481 0006 A0F10805 		sub	r5, r0, #8
 482              	.LVL49:
 278:/mnt/c/Users/Daniel/Documents/stm/ThirdParty/nucleo207/Middlewares/Third_Party/FreeRTOS/Source/portable/MemMang/heap_4.c **** 		configASSERT( pxLink->pxNextFreeBlock == NULL );
 483              		.loc 1 278 0
 484 000a 50F8042C 		ldr	r2, [r0, #-4]
 485 000e 1649     		ldr	r1, .L49
 486 0010 0968     		ldr	r1, [r1]
 487 0012 0A42     		tst	r2, r1
 488 0014 08D1     		bne	.L41
 489              	.LBB18:
 490              	.LBB19:
 491              		.loc 2 195 0
 492              		.syntax unified
 493              	@ 195 "/mnt/c/Users/Daniel/Documents/stm/ThirdParty/nucleo207/Middlewares/Third_Party/FreeRTOS/Sour
 494 0016 4FF05003 			mov r3, #80												
 495 001a 83F31188 		msr basepri, r3											
 496 001e BFF36F8F 		isb														
 497 0022 BFF34F8F 		dsb														
 498              	
 499              	@ 0 "" 2
 500              	.LVL50:
 501              		.thumb
 502              		.syntax unified
 503              	.L42:
 504 0026 FEE7     		b	.L42
 505              	.L41:
 506              	.LBE19:
 507              	.LBE18:
 279:/mnt/c/Users/Daniel/Documents/stm/ThirdParty/nucleo207/Middlewares/Third_Party/FreeRTOS/Source/portable/MemMang/heap_4.c **** 
 508              		.loc 1 279 0
 509 0028 50F8080C 		ldr	r0, [r0, #-8]
 510              	.LVL51:
 511 002c 40B1     		cbz	r0, .L43
 512              	.LBB20:
 513              	.LBB21:
 514              		.loc 2 195 0
 515              		.syntax unified
 516              	@ 195 "/mnt/c/Users/Daniel/Documents/stm/ThirdParty/nucleo207/Middlewares/Third_Party/FreeRTOS/Sour
 517 002e 4FF05003 			mov r3, #80												
 518 0032 83F31188 		msr basepri, r3											
 519 0036 BFF36F8F 		isb														
 520 003a BFF34F8F 		dsb														
 521              	
 522              	@ 0 "" 2
 523              	.LVL52:
 524              		.thumb
 525              		.syntax unified
 526              	.L44:
 527 003e FEE7     		b	.L44
ARM GAS  /tmp/ccI1HsHp.s 			page 22


 528              	.L43:
 529              	.LBE21:
 530              	.LBE20:
 287:/mnt/c/Users/Daniel/Documents/stm/ThirdParty/nucleo207/Middlewares/Third_Party/FreeRTOS/Source/portable/MemMang/heap_4.c **** 
 531              		.loc 1 287 0
 532 0040 22EA0102 		bic	r2, r2, r1
 533 0044 44F8042C 		str	r2, [r4, #-4]
 289:/mnt/c/Users/Daniel/Documents/stm/ThirdParty/nucleo207/Middlewares/Third_Party/FreeRTOS/Source/portable/MemMang/heap_4.c **** 				{
 534              		.loc 1 289 0
 535 0048 FFF7FEFF 		bl	vTaskSuspendAll
 536              	.LVL53:
 292:/mnt/c/Users/Daniel/Documents/stm/ThirdParty/nucleo207/Middlewares/Third_Party/FreeRTOS/Source/portable/MemMang/heap_4.c **** 					traceFREE( pv, pxLink->xBlockSize );
 537              		.loc 1 292 0
 538 004c 54F8041C 		ldr	r1, [r4, #-4]
 539 0050 064A     		ldr	r2, .L49+4
 540 0052 1368     		ldr	r3, [r2]
 541 0054 0B44     		add	r3, r3, r1
 542 0056 1360     		str	r3, [r2]
 294:/mnt/c/Users/Daniel/Documents/stm/ThirdParty/nucleo207/Middlewares/Third_Party/FreeRTOS/Source/portable/MemMang/heap_4.c **** 				}
 543              		.loc 1 294 0
 544 0058 2846     		mov	r0, r5
 545 005a FFF7FEFF 		bl	prvInsertBlockIntoFreeList
 546              	.LVL54:
 296:/mnt/c/Users/Daniel/Documents/stm/ThirdParty/nucleo207/Middlewares/Third_Party/FreeRTOS/Source/portable/MemMang/heap_4.c **** 			}
 547              		.loc 1 296 0
 548 005e FFF7FEFF 		bl	xTaskResumeAll
 549              	.LVL55:
 308:/mnt/c/Users/Daniel/Documents/stm/ThirdParty/nucleo207/Middlewares/Third_Party/FreeRTOS/Source/portable/MemMang/heap_4.c **** /*-----------------------------------------------------------*/
 550              		.loc 1 308 0
 551 0062 38BD     		pop	{r3, r4, r5, pc}
 552              	.LVL56:
 553              	.L46:
 554              	.LCFI5:
 555              		.cfi_def_cfa_offset 0
 556              		.cfi_restore 3
 557              		.cfi_restore 4
 558              		.cfi_restore 5
 559              		.cfi_restore 14
 560 0064 7047     		bx	lr
 561              	.L50:
 562 0066 00BF     		.align	2
 563              	.L49:
 564 0068 00000000 		.word	.LANCHOR4
 565 006c 00000000 		.word	.LANCHOR3
 566              		.cfi_endproc
 567              	.LFE6:
 569              		.section	.text.xPortGetFreeHeapSize,"ax",%progbits
 570              		.align	1
 571              		.global	xPortGetFreeHeapSize
 572              		.syntax unified
 573              		.thumb
 574              		.thumb_func
 575              		.fpu softvfp
 577              	xPortGetFreeHeapSize:
 578              	.LFB7:
 312:/mnt/c/Users/Daniel/Documents/stm/ThirdParty/nucleo207/Middlewares/Third_Party/FreeRTOS/Source/portable/MemMang/heap_4.c **** 	return xFreeBytesRemaining;
 579              		.loc 1 312 0
ARM GAS  /tmp/ccI1HsHp.s 			page 23


 580              		.cfi_startproc
 581              		@ args = 0, pretend = 0, frame = 0
 582              		@ frame_needed = 0, uses_anonymous_args = 0
 583              		@ link register save eliminated.
 314:/mnt/c/Users/Daniel/Documents/stm/ThirdParty/nucleo207/Middlewares/Third_Party/FreeRTOS/Source/portable/MemMang/heap_4.c **** /*-----------------------------------------------------------*/
 584              		.loc 1 314 0
 585 0000 014B     		ldr	r3, .L52
 586 0002 1868     		ldr	r0, [r3]
 587 0004 7047     		bx	lr
 588              	.L53:
 589 0006 00BF     		.align	2
 590              	.L52:
 591 0008 00000000 		.word	.LANCHOR3
 592              		.cfi_endproc
 593              	.LFE7:
 595              		.section	.text.xPortGetMinimumEverFreeHeapSize,"ax",%progbits
 596              		.align	1
 597              		.global	xPortGetMinimumEverFreeHeapSize
 598              		.syntax unified
 599              		.thumb
 600              		.thumb_func
 601              		.fpu softvfp
 603              	xPortGetMinimumEverFreeHeapSize:
 604              	.LFB8:
 318:/mnt/c/Users/Daniel/Documents/stm/ThirdParty/nucleo207/Middlewares/Third_Party/FreeRTOS/Source/portable/MemMang/heap_4.c **** 	return xMinimumEverFreeBytesRemaining;
 605              		.loc 1 318 0
 606              		.cfi_startproc
 607              		@ args = 0, pretend = 0, frame = 0
 608              		@ frame_needed = 0, uses_anonymous_args = 0
 609              		@ link register save eliminated.
 320:/mnt/c/Users/Daniel/Documents/stm/ThirdParty/nucleo207/Middlewares/Third_Party/FreeRTOS/Source/portable/MemMang/heap_4.c **** /*-----------------------------------------------------------*/
 610              		.loc 1 320 0
 611 0000 014B     		ldr	r3, .L55
 612 0002 1868     		ldr	r0, [r3]
 613 0004 7047     		bx	lr
 614              	.L56:
 615 0006 00BF     		.align	2
 616              	.L55:
 617 0008 00000000 		.word	.LANCHOR2
 618              		.cfi_endproc
 619              	.LFE8:
 621              		.section	.text.vPortInitialiseBlocks,"ax",%progbits
 622              		.align	1
 623              		.global	vPortInitialiseBlocks
 624              		.syntax unified
 625              		.thumb
 626              		.thumb_func
 627              		.fpu softvfp
 629              	vPortInitialiseBlocks:
 630              	.LFB9:
 324:/mnt/c/Users/Daniel/Documents/stm/ThirdParty/nucleo207/Middlewares/Third_Party/FreeRTOS/Source/portable/MemMang/heap_4.c **** 	/* This just exists to keep the linker quiet. */
 631              		.loc 1 324 0
 632              		.cfi_startproc
 633              		@ args = 0, pretend = 0, frame = 0
 634              		@ frame_needed = 0, uses_anonymous_args = 0
 635              		@ link register save eliminated.
 326:/mnt/c/Users/Daniel/Documents/stm/ThirdParty/nucleo207/Middlewares/Third_Party/FreeRTOS/Source/portable/MemMang/heap_4.c **** /*-----------------------------------------------------------*/
ARM GAS  /tmp/ccI1HsHp.s 			page 24


 636              		.loc 1 326 0
 637 0000 7047     		bx	lr
 638              		.cfi_endproc
 639              	.LFE9:
 641              		.section	.bss.pxEnd,"aw",%nobits
 642              		.align	2
 643              		.set	.LANCHOR1,. + 0
 646              	pxEnd:
 647 0000 00000000 		.space	4
 648              		.section	.bss.ucHeap,"aw",%nobits
 649              		.align	2
 652              	ucHeap:
 653 0000 00000000 		.space	15360
 653      00000000 
 653      00000000 
 653      00000000 
 653      00000000 
 654              		.section	.bss.xBlockAllocatedBit,"aw",%nobits
 655              		.align	2
 656              		.set	.LANCHOR4,. + 0
 659              	xBlockAllocatedBit:
 660 0000 00000000 		.space	4
 661              		.section	.bss.xFreeBytesRemaining,"aw",%nobits
 662              		.align	2
 663              		.set	.LANCHOR3,. + 0
 666              	xFreeBytesRemaining:
 667 0000 00000000 		.space	4
 668              		.section	.bss.xMinimumEverFreeBytesRemaining,"aw",%nobits
 669              		.align	2
 670              		.set	.LANCHOR2,. + 0
 673              	xMinimumEverFreeBytesRemaining:
 674 0000 00000000 		.space	4
 675              		.section	.bss.xStart,"aw",%nobits
 676              		.align	2
 677              		.set	.LANCHOR0,. + 0
 680              	xStart:
 681 0000 00000000 		.space	8
 681      00000000 
 682              		.text
 683              	.Letext0:
 684              		.file 3 "/opt/gcc-arm-none-eabi-7-2017-q4-major/lib/gcc/arm-none-eabi/7.2.1/include/stddef.h"
 685              		.file 4 "/opt/gcc-arm-none-eabi-7-2017-q4-major/arm-none-eabi/include/machine/_default_types.h"
 686              		.file 5 "/opt/gcc-arm-none-eabi-7-2017-q4-major/arm-none-eabi/include/sys/lock.h"
 687              		.file 6 "/opt/gcc-arm-none-eabi-7-2017-q4-major/arm-none-eabi/include/sys/_types.h"
 688              		.file 7 "/opt/gcc-arm-none-eabi-7-2017-q4-major/arm-none-eabi/include/sys/reent.h"
 689              		.file 8 "/opt/gcc-arm-none-eabi-7-2017-q4-major/arm-none-eabi/include/stdlib.h"
 690              		.file 9 "/opt/gcc-arm-none-eabi-7-2017-q4-major/arm-none-eabi/include/sys/_stdint.h"
 691              		.file 10 "/mnt/c/Users/Daniel/Documents/stm/ThirdParty/nucleo207/Inc/FreeRTOSConfig.h"
 692              		.file 11 "/mnt/c/Users/Daniel/Documents/stm/ThirdParty/nucleo207/Middlewares/Third_Party/FreeRTOS/
ARM GAS  /tmp/ccI1HsHp.s 			page 25

