ARM GAS  /tmp/ccZ75Kv0.s 			page 1


   1              		.cpu cortex-m3
   2              		.eabi_attribute 20, 1
   3              		.eabi_attribute 21, 1
   4              		.eabi_attribute 23, 3
   5              		.eabi_attribute 24, 1
   6              		.eabi_attribute 25, 1
   7              		.eabi_attribute 26, 1
   8              		.eabi_attribute 30, 1
   9              		.eabi_attribute 34, 1
  10              		.eabi_attribute 18, 4
  11              		.file	"led.c"
  12              		.text
  13              	.Ltext0:
  14              		.cfi_sections	.debug_frame
  15              		.section	.text.led_On,"ax",%progbits
  16              		.align	1
  17              		.global	led_On
  18              		.syntax unified
  19              		.thumb
  20              		.thumb_func
  21              		.fpu softvfp
  23              	led_On:
  24              	.LFB72:
  25              		.file 1 "/mnt/c/Users/Daniel/Documents/stm/app/Drivers/Src/led.c"
   1:/mnt/c/Users/Daniel/Documents/stm/app/Drivers/Src/led.c **** #include "led.h"
   2:/mnt/c/Users/Daniel/Documents/stm/app/Drivers/Src/led.c **** #include "main.h"
   3:/mnt/c/Users/Daniel/Documents/stm/app/Drivers/Src/led.c **** #include <stdint.h>
   4:/mnt/c/Users/Daniel/Documents/stm/app/Drivers/Src/led.c **** #include <string.h>
   5:/mnt/c/Users/Daniel/Documents/stm/app/Drivers/Src/led.c **** #include <assert.h>
   6:/mnt/c/Users/Daniel/Documents/stm/app/Drivers/Src/led.c **** #include "stm32f207xx.h"
   7:/mnt/c/Users/Daniel/Documents/stm/app/Drivers/Src/led.c **** 
   8:/mnt/c/Users/Daniel/Documents/stm/app/Drivers/Src/led.c **** 
   9:/mnt/c/Users/Daniel/Documents/stm/app/Drivers/Src/led.c **** #define NUM_LEDS 3
  10:/mnt/c/Users/Daniel/Documents/stm/app/Drivers/Src/led.c **** #define NUM_COLLS 1
  11:/mnt/c/Users/Daniel/Documents/stm/app/Drivers/Src/led.c **** #define BLINK_THRESHOLD 1000
  12:/mnt/c/Users/Daniel/Documents/stm/app/Drivers/Src/led.c **** 
  13:/mnt/c/Users/Daniel/Documents/stm/app/Drivers/Src/led.c **** typedef enum {
  14:/mnt/c/Users/Daniel/Documents/stm/app/Drivers/Src/led.c ****     ledRGB_Red = 0,
  15:/mnt/c/Users/Daniel/Documents/stm/app/Drivers/Src/led.c ****     ledRGB_Green,
  16:/mnt/c/Users/Daniel/Documents/stm/app/Drivers/Src/led.c ****     ledRGB_Blue,
  17:/mnt/c/Users/Daniel/Documents/stm/app/Drivers/Src/led.c **** } ledRGB_t;
  18:/mnt/c/Users/Daniel/Documents/stm/app/Drivers/Src/led.c **** 
  19:/mnt/c/Users/Daniel/Documents/stm/app/Drivers/Src/led.c **** 
  20:/mnt/c/Users/Daniel/Documents/stm/app/Drivers/Src/led.c **** //current given behavior for led collection
  21:/mnt/c/Users/Daniel/Documents/stm/app/Drivers/Src/led.c **** typedef enum {
  22:/mnt/c/Users/Daniel/Documents/stm/app/Drivers/Src/led.c ****     ledBehavior_Drive = 0x0,
  23:/mnt/c/Users/Daniel/Documents/stm/app/Drivers/Src/led.c ****     ledBehavior_Blinking 
  24:/mnt/c/Users/Daniel/Documents/stm/app/Drivers/Src/led.c **** } ledBehavior_t;
  25:/mnt/c/Users/Daniel/Documents/stm/app/Drivers/Src/led.c **** 
  26:/mnt/c/Users/Daniel/Documents/stm/app/Drivers/Src/led.c **** //current state of the led collection
  27:/mnt/c/Users/Daniel/Documents/stm/app/Drivers/Src/led.c **** typedef enum {
  28:/mnt/c/Users/Daniel/Documents/stm/app/Drivers/Src/led.c ****     ledCollectionState_Off = 0x0,
  29:/mnt/c/Users/Daniel/Documents/stm/app/Drivers/Src/led.c ****     ledCollectionState_On
  30:/mnt/c/Users/Daniel/Documents/stm/app/Drivers/Src/led.c **** } ledCollectionState_t;
  31:/mnt/c/Users/Daniel/Documents/stm/app/Drivers/Src/led.c **** 
  32:/mnt/c/Users/Daniel/Documents/stm/app/Drivers/Src/led.c **** typedef enum {
  33:/mnt/c/Users/Daniel/Documents/stm/app/Drivers/Src/led.c ****     invalidCollection = -1,
ARM GAS  /tmp/ccZ75Kv0.s 			page 2


  34:/mnt/c/Users/Daniel/Documents/stm/app/Drivers/Src/led.c ****     ledCollections_1
  35:/mnt/c/Users/Daniel/Documents/stm/app/Drivers/Src/led.c **** } ledCollections_t;
  36:/mnt/c/Users/Daniel/Documents/stm/app/Drivers/Src/led.c **** 
  37:/mnt/c/Users/Daniel/Documents/stm/app/Drivers/Src/led.c **** //single led structure
  38:/mnt/c/Users/Daniel/Documents/stm/app/Drivers/Src/led.c **** typedef struct led {
  39:/mnt/c/Users/Daniel/Documents/stm/app/Drivers/Src/led.c ****     uint16_t pin; //GPIO Pin of led
  40:/mnt/c/Users/Daniel/Documents/stm/app/Drivers/Src/led.c ****     GPIO_TypeDef *port; //GPIO port of led
  41:/mnt/c/Users/Daniel/Documents/stm/app/Drivers/Src/led.c **** } led_t;
  42:/mnt/c/Users/Daniel/Documents/stm/app/Drivers/Src/led.c **** 
  43:/mnt/c/Users/Daniel/Documents/stm/app/Drivers/Src/led.c **** //data stored for blinking led collection
  44:/mnt/c/Users/Daniel/Documents/stm/app/Drivers/Src/led.c **** typedef struct blinkInfo {
  45:/mnt/c/Users/Daniel/Documents/stm/app/Drivers/Src/led.c ****     long blinkCount; //current number of cycles to blink (duration)
  46:/mnt/c/Users/Daniel/Documents/stm/app/Drivers/Src/led.c ****     long blinkThreshold; //max number of cycles to blink
  47:/mnt/c/Users/Daniel/Documents/stm/app/Drivers/Src/led.c ****     int numBlinks; //how many times the led will blink
  48:/mnt/c/Users/Daniel/Documents/stm/app/Drivers/Src/led.c **** } blinkInfo_t;
  49:/mnt/c/Users/Daniel/Documents/stm/app/Drivers/Src/led.c **** 
  50:/mnt/c/Users/Daniel/Documents/stm/app/Drivers/Src/led.c **** //struct for collection of rgb leds
  51:/mnt/c/Users/Daniel/Documents/stm/app/Drivers/Src/led.c **** struct collection {
  52:/mnt/c/Users/Daniel/Documents/stm/app/Drivers/Src/led.c ****     led_t leds[NUM_LEDS]; //leds in the collection
  53:/mnt/c/Users/Daniel/Documents/stm/app/Drivers/Src/led.c ****     ledColors_t color; //current color of collection
  54:/mnt/c/Users/Daniel/Documents/stm/app/Drivers/Src/led.c ****     blinkInfo_t blink; //blink info for collection
  55:/mnt/c/Users/Daniel/Documents/stm/app/Drivers/Src/led.c ****     ledCollectionState_t state; //current on/off state of collection
  56:/mnt/c/Users/Daniel/Documents/stm/app/Drivers/Src/led.c ****     ledBehavior_t behavior; //driving or blinking
  57:/mnt/c/Users/Daniel/Documents/stm/app/Drivers/Src/led.c **** };
  58:/mnt/c/Users/Daniel/Documents/stm/app/Drivers/Src/led.c **** 
  59:/mnt/c/Users/Daniel/Documents/stm/app/Drivers/Src/led.c **** 
  60:/mnt/c/Users/Daniel/Documents/stm/app/Drivers/Src/led.c **** static Collection_t collArray[NUM_COLLS] = {
  61:/mnt/c/Users/Daniel/Documents/stm/app/Drivers/Src/led.c ****     [ledCollections_1] =
  62:/mnt/c/Users/Daniel/Documents/stm/app/Drivers/Src/led.c ****     {
  63:/mnt/c/Users/Daniel/Documents/stm/app/Drivers/Src/led.c ****         .leds = {
  64:/mnt/c/Users/Daniel/Documents/stm/app/Drivers/Src/led.c ****                     [ledRGB_Red] = 
  65:/mnt/c/Users/Daniel/Documents/stm/app/Drivers/Src/led.c ****                     {
  66:/mnt/c/Users/Daniel/Documents/stm/app/Drivers/Src/led.c ****                         .pin = ledR_Pin,
  67:/mnt/c/Users/Daniel/Documents/stm/app/Drivers/Src/led.c ****                         .port = ledR_GPIO_Port
  68:/mnt/c/Users/Daniel/Documents/stm/app/Drivers/Src/led.c ****                     },
  69:/mnt/c/Users/Daniel/Documents/stm/app/Drivers/Src/led.c **** 
  70:/mnt/c/Users/Daniel/Documents/stm/app/Drivers/Src/led.c ****                     [ledRGB_Green] = 
  71:/mnt/c/Users/Daniel/Documents/stm/app/Drivers/Src/led.c ****                     {
  72:/mnt/c/Users/Daniel/Documents/stm/app/Drivers/Src/led.c ****                         .pin = ledG_Pin,
  73:/mnt/c/Users/Daniel/Documents/stm/app/Drivers/Src/led.c ****                         .port = ledG_GPIO_Port
  74:/mnt/c/Users/Daniel/Documents/stm/app/Drivers/Src/led.c ****                     },
  75:/mnt/c/Users/Daniel/Documents/stm/app/Drivers/Src/led.c **** 
  76:/mnt/c/Users/Daniel/Documents/stm/app/Drivers/Src/led.c ****                     [ledRGB_Blue] = 
  77:/mnt/c/Users/Daniel/Documents/stm/app/Drivers/Src/led.c ****                     {
  78:/mnt/c/Users/Daniel/Documents/stm/app/Drivers/Src/led.c ****                         .pin = ledB_Pin,
  79:/mnt/c/Users/Daniel/Documents/stm/app/Drivers/Src/led.c ****                         .port = ledB_GPIO_Port
  80:/mnt/c/Users/Daniel/Documents/stm/app/Drivers/Src/led.c ****                     }
  81:/mnt/c/Users/Daniel/Documents/stm/app/Drivers/Src/led.c ****                 },
  82:/mnt/c/Users/Daniel/Documents/stm/app/Drivers/Src/led.c ****         .color = ledColors_Blue,
  83:/mnt/c/Users/Daniel/Documents/stm/app/Drivers/Src/led.c ****         .blink = {.blinkCount = 0, .blinkThreshold = BLINK_THRESHOLD, .numBlinks = 10},
  84:/mnt/c/Users/Daniel/Documents/stm/app/Drivers/Src/led.c ****         .state = ledCollectionState_Off,
  85:/mnt/c/Users/Daniel/Documents/stm/app/Drivers/Src/led.c ****         .behavior = ledBehavior_Drive
  86:/mnt/c/Users/Daniel/Documents/stm/app/Drivers/Src/led.c ****     }
  87:/mnt/c/Users/Daniel/Documents/stm/app/Drivers/Src/led.c **** };
  88:/mnt/c/Users/Daniel/Documents/stm/app/Drivers/Src/led.c **** 
  89:/mnt/c/Users/Daniel/Documents/stm/app/Drivers/Src/led.c **** 
  90:/mnt/c/Users/Daniel/Documents/stm/app/Drivers/Src/led.c **** //turn on the led indefinitely
ARM GAS  /tmp/ccZ75Kv0.s 			page 3


  91:/mnt/c/Users/Daniel/Documents/stm/app/Drivers/Src/led.c **** void led_On(Collection_t coll)
  92:/mnt/c/Users/Daniel/Documents/stm/app/Drivers/Src/led.c **** {
  26              		.loc 1 92 0
  27              		.cfi_startproc
  28              		@ args = 44, pretend = 16, frame = 0
  29              		@ frame_needed = 0, uses_anonymous_args = 0
  30 0000 84B0     		sub	sp, sp, #16
  31              	.LCFI0:
  32              		.cfi_def_cfa_offset 16
  33 0002 38B5     		push	{r3, r4, r5, lr}
  34              	.LCFI1:
  35              		.cfi_def_cfa_offset 32
  36              		.cfi_offset 3, -32
  37              		.cfi_offset 4, -28
  38              		.cfi_offset 5, -24
  39              		.cfi_offset 14, -20
  40 0004 04AC     		add	r4, sp, #16
  41 0006 84E80F00 		stm	r4, {r0, r1, r2, r3}
  42              	.LVL0:
  93:/mnt/c/Users/Daniel/Documents/stm/app/Drivers/Src/led.c ****     int i;
  94:/mnt/c/Users/Daniel/Documents/stm/app/Drivers/Src/led.c ****     unsigned mask = 0x1;
  43              		.loc 1 94 0
  44 000a 0125     		movs	r5, #1
  95:/mnt/c/Users/Daniel/Documents/stm/app/Drivers/Src/led.c ****     for(i = 0; i < NUM_LEDS; i++)
  45              		.loc 1 95 0
  46 000c 0024     		movs	r4, #0
  47 000e 01E0     		b	.L2
  48              	.LVL1:
  49              	.L3:
  96:/mnt/c/Users/Daniel/Documents/stm/app/Drivers/Src/led.c ****     {
  97:/mnt/c/Users/Daniel/Documents/stm/app/Drivers/Src/led.c ****         //if there is a 1 in the bit position of the color, turn on that pin
  98:/mnt/c/Users/Daniel/Documents/stm/app/Drivers/Src/led.c ****         if ((coll.color & mask) > 0)
  99:/mnt/c/Users/Daniel/Documents/stm/app/Drivers/Src/led.c ****         {
 100:/mnt/c/Users/Daniel/Documents/stm/app/Drivers/Src/led.c ****             HAL_GPIO_WritePin(coll.leds[i].port, coll.leds[i].pin, SET);
 101:/mnt/c/Users/Daniel/Documents/stm/app/Drivers/Src/led.c ****         }
 102:/mnt/c/Users/Daniel/Documents/stm/app/Drivers/Src/led.c **** 
 103:/mnt/c/Users/Daniel/Documents/stm/app/Drivers/Src/led.c ****         //shift mask for next bit in color
 104:/mnt/c/Users/Daniel/Documents/stm/app/Drivers/Src/led.c ****         mask <<= 1;
  50              		.loc 1 104 0 discriminator 2
  51 0010 6D00     		lsls	r5, r5, #1
  52              	.LVL2:
  95:/mnt/c/Users/Daniel/Documents/stm/app/Drivers/Src/led.c ****     for(i = 0; i < NUM_LEDS; i++)
  53              		.loc 1 95 0 discriminator 2
  54 0012 0134     		adds	r4, r4, #1
  55              	.LVL3:
  56              	.L2:
  95:/mnt/c/Users/Daniel/Documents/stm/app/Drivers/Src/led.c ****     for(i = 0; i < NUM_LEDS; i++)
  57              		.loc 1 95 0 is_stmt 0 discriminator 1
  58 0014 022C     		cmp	r4, #2
  59 0016 0EDC     		bgt	.L6
  98:/mnt/c/Users/Daniel/Documents/stm/app/Drivers/Src/led.c ****         {
  60              		.loc 1 98 0 is_stmt 1
  61 0018 9DF82830 		ldrb	r3, [sp, #40]	@ zero_extendqisi2
  62 001c 2B42     		tst	r3, r5
  63 001e F7D0     		beq	.L3
 100:/mnt/c/Users/Daniel/Documents/stm/app/Drivers/Src/led.c ****         }
  64              		.loc 1 100 0
ARM GAS  /tmp/ccZ75Kv0.s 			page 4


  65 0020 04AB     		add	r3, sp, #16
  66 0022 03EBC403 		add	r3, r3, r4, lsl #3
  67 0026 0122     		movs	r2, #1
  68 0028 04A9     		add	r1, sp, #16
  69 002a 31F83410 		ldrh	r1, [r1, r4, lsl #3]
  70 002e 5868     		ldr	r0, [r3, #4]
  71 0030 FFF7FEFF 		bl	HAL_GPIO_WritePin
  72              	.LVL4:
  73 0034 ECE7     		b	.L3
  74              	.L6:
 105:/mnt/c/Users/Daniel/Documents/stm/app/Drivers/Src/led.c ****     }
 106:/mnt/c/Users/Daniel/Documents/stm/app/Drivers/Src/led.c ****     coll.state = ledCollectionState_On;
 107:/mnt/c/Users/Daniel/Documents/stm/app/Drivers/Src/led.c ****     return;
 108:/mnt/c/Users/Daniel/Documents/stm/app/Drivers/Src/led.c **** }
  75              		.loc 1 108 0
  76 0036 BDE83840 		pop	{r3, r4, r5, lr}
  77              	.LCFI2:
  78              		.cfi_restore 14
  79              		.cfi_restore 5
  80              		.cfi_restore 4
  81              		.cfi_restore 3
  82              		.cfi_def_cfa_offset 16
  83              	.LVL5:
  84 003a 04B0     		add	sp, sp, #16
  85              	.LCFI3:
  86              		.cfi_def_cfa_offset 0
  87 003c 7047     		bx	lr
  88              		.cfi_endproc
  89              	.LFE72:
  91              		.section	.text.led_Off,"ax",%progbits
  92              		.align	1
  93              		.global	led_Off
  94              		.syntax unified
  95              		.thumb
  96              		.thumb_func
  97              		.fpu softvfp
  99              	led_Off:
 100              	.LFB73:
 109:/mnt/c/Users/Daniel/Documents/stm/app/Drivers/Src/led.c **** 
 110:/mnt/c/Users/Daniel/Documents/stm/app/Drivers/Src/led.c **** //turns off leds in a collection indefinitely
 111:/mnt/c/Users/Daniel/Documents/stm/app/Drivers/Src/led.c **** void led_Off (Collection_t coll)
 112:/mnt/c/Users/Daniel/Documents/stm/app/Drivers/Src/led.c **** {
 101              		.loc 1 112 0
 102              		.cfi_startproc
 103              		@ args = 44, pretend = 16, frame = 0
 104              		@ frame_needed = 0, uses_anonymous_args = 0
 105 0000 84B0     		sub	sp, sp, #16
 106              	.LCFI4:
 107              		.cfi_def_cfa_offset 16
 108 0002 10B5     		push	{r4, lr}
 109              	.LCFI5:
 110              		.cfi_def_cfa_offset 24
 111              		.cfi_offset 4, -24
 112              		.cfi_offset 14, -20
 113 0004 02AC     		add	r4, sp, #8
 114 0006 84E80F00 		stm	r4, {r0, r1, r2, r3}
 115              	.LVL6:
ARM GAS  /tmp/ccZ75Kv0.s 			page 5


 113:/mnt/c/Users/Daniel/Documents/stm/app/Drivers/Src/led.c ****     int i;
 114:/mnt/c/Users/Daniel/Documents/stm/app/Drivers/Src/led.c ****     //set all leds to off state
 115:/mnt/c/Users/Daniel/Documents/stm/app/Drivers/Src/led.c ****     for(i = 0; i < NUM_LEDS; i++)
 116              		.loc 1 115 0
 117 000a 0024     		movs	r4, #0
 118 000c 0AE0     		b	.L8
 119              	.LVL7:
 120              	.L9:
 116:/mnt/c/Users/Daniel/Documents/stm/app/Drivers/Src/led.c ****     {
 117:/mnt/c/Users/Daniel/Documents/stm/app/Drivers/Src/led.c ****         HAL_GPIO_WritePin(coll.leds[i].port, coll.leds[i].pin, RESET);
 121              		.loc 1 117 0 discriminator 3
 122 000e 02AB     		add	r3, sp, #8
 123 0010 03EBC403 		add	r3, r3, r4, lsl #3
 124 0014 0022     		movs	r2, #0
 125 0016 02A9     		add	r1, sp, #8
 126 0018 31F83410 		ldrh	r1, [r1, r4, lsl #3]
 127 001c 5868     		ldr	r0, [r3, #4]
 128 001e FFF7FEFF 		bl	HAL_GPIO_WritePin
 129              	.LVL8:
 115:/mnt/c/Users/Daniel/Documents/stm/app/Drivers/Src/led.c ****     {
 130              		.loc 1 115 0 discriminator 3
 131 0022 0134     		adds	r4, r4, #1
 132              	.LVL9:
 133              	.L8:
 115:/mnt/c/Users/Daniel/Documents/stm/app/Drivers/Src/led.c ****     {
 134              		.loc 1 115 0 is_stmt 0 discriminator 1
 135 0024 022C     		cmp	r4, #2
 136 0026 F2DD     		ble	.L9
 118:/mnt/c/Users/Daniel/Documents/stm/app/Drivers/Src/led.c ****     }
 119:/mnt/c/Users/Daniel/Documents/stm/app/Drivers/Src/led.c ****     //update states
 120:/mnt/c/Users/Daniel/Documents/stm/app/Drivers/Src/led.c ****     coll.state = ledCollectionState_Off;
 121:/mnt/c/Users/Daniel/Documents/stm/app/Drivers/Src/led.c ****     return;
 122:/mnt/c/Users/Daniel/Documents/stm/app/Drivers/Src/led.c **** }
 137              		.loc 1 122 0 is_stmt 1
 138 0028 BDE81040 		pop	{r4, lr}
 139              	.LCFI6:
 140              		.cfi_restore 14
 141              		.cfi_restore 4
 142              		.cfi_def_cfa_offset 16
 143              	.LVL10:
 144 002c 04B0     		add	sp, sp, #16
 145              	.LCFI7:
 146              		.cfi_def_cfa_offset 0
 147 002e 7047     		bx	lr
 148              		.cfi_endproc
 149              	.LFE73:
 151              		.section	.text.led_ColorChange,"ax",%progbits
 152              		.align	1
 153              		.global	led_ColorChange
 154              		.syntax unified
 155              		.thumb
 156              		.thumb_func
 157              		.fpu softvfp
 159              	led_ColorChange:
 160              	.LFB74:
 123:/mnt/c/Users/Daniel/Documents/stm/app/Drivers/Src/led.c **** 
 124:/mnt/c/Users/Daniel/Documents/stm/app/Drivers/Src/led.c **** void led_ColorChange (Collection_t *coll, ledColors_t newColor)
ARM GAS  /tmp/ccZ75Kv0.s 			page 6


 125:/mnt/c/Users/Daniel/Documents/stm/app/Drivers/Src/led.c **** {
 161              		.loc 1 125 0
 162              		.cfi_startproc
 163              		@ args = 0, pretend = 0, frame = 0
 164              		@ frame_needed = 0, uses_anonymous_args = 0
 165              		@ link register save eliminated.
 166              	.LVL11:
 126:/mnt/c/Users/Daniel/Documents/stm/app/Drivers/Src/led.c ****     //assert(newColor >= ledColors_Red);
 127:/mnt/c/Users/Daniel/Documents/stm/app/Drivers/Src/led.c **** 
 128:/mnt/c/Users/Daniel/Documents/stm/app/Drivers/Src/led.c ****     coll->color = newColor;
 167              		.loc 1 128 0
 168 0000 0176     		strb	r1, [r0, #24]
 129:/mnt/c/Users/Daniel/Documents/stm/app/Drivers/Src/led.c ****     return;
 130:/mnt/c/Users/Daniel/Documents/stm/app/Drivers/Src/led.c **** }
 169              		.loc 1 130 0
 170 0002 7047     		bx	lr
 171              		.cfi_endproc
 172              	.LFE74:
 174              		.section	.text.led_Blink,"ax",%progbits
 175              		.align	1
 176              		.global	led_Blink
 177              		.syntax unified
 178              		.thumb
 179              		.thumb_func
 180              		.fpu softvfp
 182              	led_Blink:
 183              	.LFB75:
 131:/mnt/c/Users/Daniel/Documents/stm/app/Drivers/Src/led.c **** 
 132:/mnt/c/Users/Daniel/Documents/stm/app/Drivers/Src/led.c **** //toggle led state or increase blink counter
 133:/mnt/c/Users/Daniel/Documents/stm/app/Drivers/Src/led.c **** void led_Blink (Collection_t coll)
 134:/mnt/c/Users/Daniel/Documents/stm/app/Drivers/Src/led.c **** {
 184              		.loc 1 134 0
 185              		.cfi_startproc
 186              		@ args = 44, pretend = 16, frame = 0
 187              		@ frame_needed = 0, uses_anonymous_args = 0
 188 0000 84B0     		sub	sp, sp, #16
 189              	.LCFI8:
 190              		.cfi_def_cfa_offset 16
 191 0002 30B5     		push	{r4, r5, lr}
 192              	.LCFI9:
 193              		.cfi_def_cfa_offset 28
 194              		.cfi_offset 4, -28
 195              		.cfi_offset 5, -24
 196              		.cfi_offset 14, -20
 197 0004 89B0     		sub	sp, sp, #36
 198              	.LCFI10:
 199              		.cfi_def_cfa_offset 64
 200 0006 0CAC     		add	r4, sp, #48
 201 0008 84E80F00 		stm	r4, {r0, r1, r2, r3}
 135:/mnt/c/Users/Daniel/Documents/stm/app/Drivers/Src/led.c ****     //asserts
 136:/mnt/c/Users/Daniel/Documents/stm/app/Drivers/Src/led.c ****     assert(coll.blink.numBlinks >= 0);
 202              		.loc 1 136 0
 203 000c 159B     		ldr	r3, [sp, #84]
 204 000e 002B     		cmp	r3, #0
 205 0010 0DDB     		blt	.L18
 137:/mnt/c/Users/Daniel/Documents/stm/app/Drivers/Src/led.c ****     assert(coll.behavior == ledBehavior_Blinking);
 206              		.loc 1 137 0
ARM GAS  /tmp/ccZ75Kv0.s 			page 7


 207 0012 9DF85920 		ldrb	r2, [sp, #89]	@ zero_extendqisi2
 208 0016 012A     		cmp	r2, #1
 209 0018 0FD1     		bne	.L19
 138:/mnt/c/Users/Daniel/Documents/stm/app/Drivers/Src/led.c **** 
 139:/mnt/c/Users/Daniel/Documents/stm/app/Drivers/Src/led.c **** 
 140:/mnt/c/Users/Daniel/Documents/stm/app/Drivers/Src/led.c ****     //if number of blinks satisfied, return to task
 141:/mnt/c/Users/Daniel/Documents/stm/app/Drivers/Src/led.c ****     if (coll.blink.numBlinks == 0)
 210              		.loc 1 141 0
 211 001a 1BB1     		cbz	r3, .L12
 142:/mnt/c/Users/Daniel/Documents/stm/app/Drivers/Src/led.c ****     {
 143:/mnt/c/Users/Daniel/Documents/stm/app/Drivers/Src/led.c ****         return;
 144:/mnt/c/Users/Daniel/Documents/stm/app/Drivers/Src/led.c ****     }
 145:/mnt/c/Users/Daniel/Documents/stm/app/Drivers/Src/led.c ****     //if we meet the threshold, toggle the pin
 146:/mnt/c/Users/Daniel/Documents/stm/app/Drivers/Src/led.c ****     else if (coll.blink.blinkCount == coll.blink.blinkThreshold)
 212              		.loc 1 146 0
 213 001c 139A     		ldr	r2, [sp, #76]
 214 001e 149B     		ldr	r3, [sp, #80]
 215 0020 9A42     		cmp	r2, r3
 216 0022 10D0     		beq	.L20
 217              	.L12:
 147:/mnt/c/Users/Daniel/Documents/stm/app/Drivers/Src/led.c ****     {
 148:/mnt/c/Users/Daniel/Documents/stm/app/Drivers/Src/led.c ****         if (coll.state == ledCollectionState_Off)
 149:/mnt/c/Users/Daniel/Documents/stm/app/Drivers/Src/led.c ****         {
 150:/mnt/c/Users/Daniel/Documents/stm/app/Drivers/Src/led.c ****             led_On(coll);
 151:/mnt/c/Users/Daniel/Documents/stm/app/Drivers/Src/led.c ****             coll.blink.numBlinks--;
 152:/mnt/c/Users/Daniel/Documents/stm/app/Drivers/Src/led.c ****         }
 153:/mnt/c/Users/Daniel/Documents/stm/app/Drivers/Src/led.c **** 
 154:/mnt/c/Users/Daniel/Documents/stm/app/Drivers/Src/led.c ****         else
 155:/mnt/c/Users/Daniel/Documents/stm/app/Drivers/Src/led.c ****         {
 156:/mnt/c/Users/Daniel/Documents/stm/app/Drivers/Src/led.c ****             led_Off(coll);
 157:/mnt/c/Users/Daniel/Documents/stm/app/Drivers/Src/led.c ****         }
 158:/mnt/c/Users/Daniel/Documents/stm/app/Drivers/Src/led.c ****         
 159:/mnt/c/Users/Daniel/Documents/stm/app/Drivers/Src/led.c ****     }
 160:/mnt/c/Users/Daniel/Documents/stm/app/Drivers/Src/led.c **** 
 161:/mnt/c/Users/Daniel/Documents/stm/app/Drivers/Src/led.c ****     else
 162:/mnt/c/Users/Daniel/Documents/stm/app/Drivers/Src/led.c ****     {
 163:/mnt/c/Users/Daniel/Documents/stm/app/Drivers/Src/led.c ****         coll.blink.blinkCount++;
 164:/mnt/c/Users/Daniel/Documents/stm/app/Drivers/Src/led.c ****     }
 165:/mnt/c/Users/Daniel/Documents/stm/app/Drivers/Src/led.c **** 
 166:/mnt/c/Users/Daniel/Documents/stm/app/Drivers/Src/led.c ****     return;
 167:/mnt/c/Users/Daniel/Documents/stm/app/Drivers/Src/led.c **** }
 218              		.loc 1 167 0
 219 0024 09B0     		add	sp, sp, #36
 220              	.LCFI11:
 221              		.cfi_remember_state
 222              		.cfi_def_cfa_offset 28
 223              		@ sp needed
 224 0026 BDE83040 		pop	{r4, r5, lr}
 225              	.LCFI12:
 226              		.cfi_restore 14
 227              		.cfi_restore 5
 228              		.cfi_restore 4
 229              		.cfi_def_cfa_offset 16
 230 002a 04B0     		add	sp, sp, #16
 231              	.LCFI13:
 232              		.cfi_def_cfa_offset 0
 233 002c 7047     		bx	lr
ARM GAS  /tmp/ccZ75Kv0.s 			page 8


 234              	.L18:
 235              	.LCFI14:
 236              		.cfi_restore_state
 136:/mnt/c/Users/Daniel/Documents/stm/app/Drivers/Src/led.c ****     assert(coll.behavior == ledBehavior_Blinking);
 237              		.loc 1 136 0 discriminator 1
 238 002e 144B     		ldr	r3, .L22
 239 0030 144A     		ldr	r2, .L22+4
 240 0032 8821     		movs	r1, #136
 241 0034 1448     		ldr	r0, .L22+8
 242 0036 FFF7FEFF 		bl	__assert_func
 243              	.LVL12:
 244              	.L19:
 137:/mnt/c/Users/Daniel/Documents/stm/app/Drivers/Src/led.c **** 
 245              		.loc 1 137 0 discriminator 1
 246 003a 144B     		ldr	r3, .L22+12
 247 003c 114A     		ldr	r2, .L22+4
 248 003e 8921     		movs	r1, #137
 249 0040 1148     		ldr	r0, .L22+8
 250 0042 FFF7FEFF 		bl	__assert_func
 251              	.LVL13:
 252              	.L20:
 148:/mnt/c/Users/Daniel/Documents/stm/app/Drivers/Src/led.c ****         {
 253              		.loc 1 148 0
 254 0046 9DF85830 		ldrb	r3, [sp, #88]	@ zero_extendqisi2
 255 004a 63B1     		cbz	r3, .L21
 156:/mnt/c/Users/Daniel/Documents/stm/app/Drivers/Src/led.c ****         }
 256              		.loc 1 156 0
 257 004c 6C46     		mov	r4, sp
 258 004e 10AD     		add	r5, sp, #64
 259 0050 0FCD     		ldmia	r5!, {r0, r1, r2, r3}
 260 0052 0FC4     		stmia	r4!, {r0, r1, r2, r3}
 261 0054 95E80700 		ldm	r5, {r0, r1, r2}
 262 0058 84E80700 		stm	r4, {r0, r1, r2}
 263 005c 0CAB     		add	r3, sp, #48
 264 005e 0FCB     		ldm	r3, {r0, r1, r2, r3}
 265 0060 FFF7FEFF 		bl	led_Off
 266              	.LVL14:
 267 0064 DEE7     		b	.L12
 268              	.L21:
 150:/mnt/c/Users/Daniel/Documents/stm/app/Drivers/Src/led.c ****             coll.blink.numBlinks--;
 269              		.loc 1 150 0
 270 0066 6C46     		mov	r4, sp
 271 0068 10AD     		add	r5, sp, #64
 272 006a 0FCD     		ldmia	r5!, {r0, r1, r2, r3}
 273 006c 0FC4     		stmia	r4!, {r0, r1, r2, r3}
 274 006e 95E80700 		ldm	r5, {r0, r1, r2}
 275 0072 84E80700 		stm	r4, {r0, r1, r2}
 276 0076 0CAB     		add	r3, sp, #48
 277 0078 0FCB     		ldm	r3, {r0, r1, r2, r3}
 278 007a FFF7FEFF 		bl	led_On
 279              	.LVL15:
 280 007e D1E7     		b	.L12
 281              	.L23:
 282              		.align	2
 283              	.L22:
 284 0080 00000000 		.word	.LC0
 285 0084 00000000 		.word	.LANCHOR0
ARM GAS  /tmp/ccZ75Kv0.s 			page 9


 286 0088 1C000000 		.word	.LC1
 287 008c 54000000 		.word	.LC2
 288              		.cfi_endproc
 289              	.LFE75:
 291              		.section	.text.led_StopBlink,"ax",%progbits
 292              		.align	1
 293              		.global	led_StopBlink
 294              		.syntax unified
 295              		.thumb
 296              		.thumb_func
 297              		.fpu softvfp
 299              	led_StopBlink:
 300              	.LFB76:
 168:/mnt/c/Users/Daniel/Documents/stm/app/Drivers/Src/led.c **** 
 169:/mnt/c/Users/Daniel/Documents/stm/app/Drivers/Src/led.c **** //stop led from blinking and update behavior
 170:/mnt/c/Users/Daniel/Documents/stm/app/Drivers/Src/led.c **** void led_StopBlink (Collection_t coll)
 171:/mnt/c/Users/Daniel/Documents/stm/app/Drivers/Src/led.c **** {
 301              		.loc 1 171 0
 302              		.cfi_startproc
 303              		@ args = 44, pretend = 16, frame = 0
 304              		@ frame_needed = 0, uses_anonymous_args = 0
 305 0000 84B0     		sub	sp, sp, #16
 306              	.LCFI15:
 307              		.cfi_def_cfa_offset 16
 308 0002 30B5     		push	{r4, r5, lr}
 309              	.LCFI16:
 310              		.cfi_def_cfa_offset 28
 311              		.cfi_offset 4, -28
 312              		.cfi_offset 5, -24
 313              		.cfi_offset 14, -20
 314 0004 89B0     		sub	sp, sp, #36
 315              	.LCFI17:
 316              		.cfi_def_cfa_offset 64
 317 0006 0CAC     		add	r4, sp, #48
 318 0008 84E80F00 		stm	r4, {r0, r1, r2, r3}
 172:/mnt/c/Users/Daniel/Documents/stm/app/Drivers/Src/led.c ****     led_Off(coll);
 319              		.loc 1 172 0
 320 000c 6C46     		mov	r4, sp
 321 000e 10AD     		add	r5, sp, #64
 322 0010 0FCD     		ldmia	r5!, {r0, r1, r2, r3}
 323 0012 0FC4     		stmia	r4!, {r0, r1, r2, r3}
 324 0014 95E80700 		ldm	r5, {r0, r1, r2}
 325 0018 84E80700 		stm	r4, {r0, r1, r2}
 326 001c 0CAB     		add	r3, sp, #48
 327 001e 0FCB     		ldm	r3, {r0, r1, r2, r3}
 328 0020 FFF7FEFF 		bl	led_Off
 329              	.LVL16:
 173:/mnt/c/Users/Daniel/Documents/stm/app/Drivers/Src/led.c ****     coll.behavior = ledBehavior_Drive;
 174:/mnt/c/Users/Daniel/Documents/stm/app/Drivers/Src/led.c ****     return;
 175:/mnt/c/Users/Daniel/Documents/stm/app/Drivers/Src/led.c **** }
 330              		.loc 1 175 0
 331 0024 09B0     		add	sp, sp, #36
 332              	.LCFI18:
 333              		.cfi_def_cfa_offset 28
 334              		@ sp needed
 335 0026 BDE83040 		pop	{r4, r5, lr}
 336              	.LCFI19:
ARM GAS  /tmp/ccZ75Kv0.s 			page 10


 337              		.cfi_restore 14
 338              		.cfi_restore 5
 339              		.cfi_restore 4
 340              		.cfi_def_cfa_offset 16
 341 002a 04B0     		add	sp, sp, #16
 342              	.LCFI20:
 343              		.cfi_def_cfa_offset 0
 344 002c 7047     		bx	lr
 345              		.cfi_endproc
 346              	.LFE76:
 348              		.section	.text.led_taskCreate,"ax",%progbits
 349              		.align	1
 350              		.global	led_taskCreate
 351              		.syntax unified
 352              		.thumb
 353              		.thumb_func
 354              		.fpu softvfp
 356              	led_taskCreate:
 357              	.LFB77:
 176:/mnt/c/Users/Daniel/Documents/stm/app/Drivers/Src/led.c **** 
 177:/mnt/c/Users/Daniel/Documents/stm/app/Drivers/Src/led.c **** //create a task for led handling
 178:/mnt/c/Users/Daniel/Documents/stm/app/Drivers/Src/led.c **** void led_taskCreate()
 179:/mnt/c/Users/Daniel/Documents/stm/app/Drivers/Src/led.c **** {
 358              		.loc 1 179 0
 359              		.cfi_startproc
 360              		@ args = 0, pretend = 0, frame = 0
 361              		@ frame_needed = 0, uses_anonymous_args = 0
 362              		@ link register save eliminated.
 180:/mnt/c/Users/Daniel/Documents/stm/app/Drivers/Src/led.c ****     return;
 181:/mnt/c/Users/Daniel/Documents/stm/app/Drivers/Src/led.c **** }
 363              		.loc 1 181 0
 364 0000 7047     		bx	lr
 365              		.cfi_endproc
 366              	.LFE77:
 368              		.section	.text.led_activateRedLed,"ax",%progbits
 369              		.align	1
 370              		.global	led_activateRedLed
 371              		.syntax unified
 372              		.thumb
 373              		.thumb_func
 374              		.fpu softvfp
 376              	led_activateRedLed:
 377              	.LFB78:
 182:/mnt/c/Users/Daniel/Documents/stm/app/Drivers/Src/led.c **** 
 183:/mnt/c/Users/Daniel/Documents/stm/app/Drivers/Src/led.c **** //change color to red and turn on leds
 184:/mnt/c/Users/Daniel/Documents/stm/app/Drivers/Src/led.c **** void led_activateRedLed()
 185:/mnt/c/Users/Daniel/Documents/stm/app/Drivers/Src/led.c **** {
 378              		.loc 1 185 0
 379              		.cfi_startproc
 380              		@ args = 0, pretend = 0, frame = 0
 381              		@ frame_needed = 0, uses_anonymous_args = 0
 382 0000 70B5     		push	{r4, r5, r6, lr}
 383              	.LCFI21:
 384              		.cfi_def_cfa_offset 16
 385              		.cfi_offset 4, -16
 386              		.cfi_offset 5, -12
 387              		.cfi_offset 6, -8
ARM GAS  /tmp/ccZ75Kv0.s 			page 11


 388              		.cfi_offset 14, -4
 389 0002 88B0     		sub	sp, sp, #32
 390              	.LCFI22:
 391              		.cfi_def_cfa_offset 48
 186:/mnt/c/Users/Daniel/Documents/stm/app/Drivers/Src/led.c ****     led_ColorChange(collArray, ledColors_Red);
 392              		.loc 1 186 0
 393 0004 094E     		ldr	r6, .L29
 394 0006 0121     		movs	r1, #1
 395 0008 3046     		mov	r0, r6
 396 000a FFF7FEFF 		bl	led_ColorChange
 397              	.LVL17:
 187:/mnt/c/Users/Daniel/Documents/stm/app/Drivers/Src/led.c ****     led_On(collArray[ledCollections_1]);
 398              		.loc 1 187 0
 399 000e 6C46     		mov	r4, sp
 400 0010 06F11005 		add	r5, r6, #16
 401 0014 0FCD     		ldmia	r5!, {r0, r1, r2, r3}
 402 0016 0FC4     		stmia	r4!, {r0, r1, r2, r3}
 403 0018 95E80700 		ldm	r5, {r0, r1, r2}
 404 001c 84E80700 		stm	r4, {r0, r1, r2}
 405 0020 96E80F00 		ldm	r6, {r0, r1, r2, r3}
 406 0024 FFF7FEFF 		bl	led_On
 407              	.LVL18:
 188:/mnt/c/Users/Daniel/Documents/stm/app/Drivers/Src/led.c ****     return;
 189:/mnt/c/Users/Daniel/Documents/stm/app/Drivers/Src/led.c **** }
 408              		.loc 1 189 0
 409 0028 08B0     		add	sp, sp, #32
 410              	.LCFI23:
 411              		.cfi_def_cfa_offset 16
 412              		@ sp needed
 413 002a 70BD     		pop	{r4, r5, r6, pc}
 414              	.L30:
 415              		.align	2
 416              	.L29:
 417 002c 00000000 		.word	.LANCHOR1
 418              		.cfi_endproc
 419              	.LFE78:
 421              		.section	.text.led_activateBlueLed,"ax",%progbits
 422              		.align	1
 423              		.global	led_activateBlueLed
 424              		.syntax unified
 425              		.thumb
 426              		.thumb_func
 427              		.fpu softvfp
 429              	led_activateBlueLed:
 430              	.LFB79:
 190:/mnt/c/Users/Daniel/Documents/stm/app/Drivers/Src/led.c **** 
 191:/mnt/c/Users/Daniel/Documents/stm/app/Drivers/Src/led.c **** //change color to blue and turn on leds
 192:/mnt/c/Users/Daniel/Documents/stm/app/Drivers/Src/led.c **** void led_activateBlueLed()
 193:/mnt/c/Users/Daniel/Documents/stm/app/Drivers/Src/led.c **** {
 431              		.loc 1 193 0
 432              		.cfi_startproc
 433              		@ args = 0, pretend = 0, frame = 0
 434              		@ frame_needed = 0, uses_anonymous_args = 0
 435 0000 70B5     		push	{r4, r5, r6, lr}
 436              	.LCFI24:
 437              		.cfi_def_cfa_offset 16
 438              		.cfi_offset 4, -16
ARM GAS  /tmp/ccZ75Kv0.s 			page 12


 439              		.cfi_offset 5, -12
 440              		.cfi_offset 6, -8
 441              		.cfi_offset 14, -4
 442 0002 88B0     		sub	sp, sp, #32
 443              	.LCFI25:
 444              		.cfi_def_cfa_offset 48
 194:/mnt/c/Users/Daniel/Documents/stm/app/Drivers/Src/led.c ****     //collArray[ledCollections_1].color = ledColors_Blue;
 195:/mnt/c/Users/Daniel/Documents/stm/app/Drivers/Src/led.c ****     led_ColorChange(collArray, ledColors_Blue);
 445              		.loc 1 195 0
 446 0004 094E     		ldr	r6, .L33
 447 0006 0421     		movs	r1, #4
 448 0008 3046     		mov	r0, r6
 449 000a FFF7FEFF 		bl	led_ColorChange
 450              	.LVL19:
 196:/mnt/c/Users/Daniel/Documents/stm/app/Drivers/Src/led.c ****     led_On(collArray[ledCollections_1]);
 451              		.loc 1 196 0
 452 000e 6C46     		mov	r4, sp
 453 0010 06F11005 		add	r5, r6, #16
 454 0014 0FCD     		ldmia	r5!, {r0, r1, r2, r3}
 455 0016 0FC4     		stmia	r4!, {r0, r1, r2, r3}
 456 0018 95E80700 		ldm	r5, {r0, r1, r2}
 457 001c 84E80700 		stm	r4, {r0, r1, r2}
 458 0020 96E80F00 		ldm	r6, {r0, r1, r2, r3}
 459 0024 FFF7FEFF 		bl	led_On
 460              	.LVL20:
 197:/mnt/c/Users/Daniel/Documents/stm/app/Drivers/Src/led.c ****     return;
 198:/mnt/c/Users/Daniel/Documents/stm/app/Drivers/Src/led.c **** }
 461              		.loc 1 198 0
 462 0028 08B0     		add	sp, sp, #32
 463              	.LCFI26:
 464              		.cfi_def_cfa_offset 16
 465              		@ sp needed
 466 002a 70BD     		pop	{r4, r5, r6, pc}
 467              	.L34:
 468              		.align	2
 469              	.L33:
 470 002c 00000000 		.word	.LANCHOR1
 471              		.cfi_endproc
 472              	.LFE79:
 474              		.section	.text.led_activateGreenLed,"ax",%progbits
 475              		.align	1
 476              		.global	led_activateGreenLed
 477              		.syntax unified
 478              		.thumb
 479              		.thumb_func
 480              		.fpu softvfp
 482              	led_activateGreenLed:
 483              	.LFB80:
 199:/mnt/c/Users/Daniel/Documents/stm/app/Drivers/Src/led.c **** 
 200:/mnt/c/Users/Daniel/Documents/stm/app/Drivers/Src/led.c **** //change color to green and turn on leds
 201:/mnt/c/Users/Daniel/Documents/stm/app/Drivers/Src/led.c **** void led_activateGreenLed()
 202:/mnt/c/Users/Daniel/Documents/stm/app/Drivers/Src/led.c **** {
 484              		.loc 1 202 0
 485              		.cfi_startproc
 486              		@ args = 0, pretend = 0, frame = 0
 487              		@ frame_needed = 0, uses_anonymous_args = 0
 488 0000 70B5     		push	{r4, r5, r6, lr}
ARM GAS  /tmp/ccZ75Kv0.s 			page 13


 489              	.LCFI27:
 490              		.cfi_def_cfa_offset 16
 491              		.cfi_offset 4, -16
 492              		.cfi_offset 5, -12
 493              		.cfi_offset 6, -8
 494              		.cfi_offset 14, -4
 495 0002 88B0     		sub	sp, sp, #32
 496              	.LCFI28:
 497              		.cfi_def_cfa_offset 48
 203:/mnt/c/Users/Daniel/Documents/stm/app/Drivers/Src/led.c ****     led_ColorChange(collArray, ledColors_Green);
 498              		.loc 1 203 0
 499 0004 094E     		ldr	r6, .L37
 500 0006 0221     		movs	r1, #2
 501 0008 3046     		mov	r0, r6
 502 000a FFF7FEFF 		bl	led_ColorChange
 503              	.LVL21:
 204:/mnt/c/Users/Daniel/Documents/stm/app/Drivers/Src/led.c ****     led_On(collArray[ledCollections_1]);
 504              		.loc 1 204 0
 505 000e 6C46     		mov	r4, sp
 506 0010 06F11005 		add	r5, r6, #16
 507 0014 0FCD     		ldmia	r5!, {r0, r1, r2, r3}
 508 0016 0FC4     		stmia	r4!, {r0, r1, r2, r3}
 509 0018 95E80700 		ldm	r5, {r0, r1, r2}
 510 001c 84E80700 		stm	r4, {r0, r1, r2}
 511 0020 96E80F00 		ldm	r6, {r0, r1, r2, r3}
 512 0024 FFF7FEFF 		bl	led_On
 513              	.LVL22:
 205:/mnt/c/Users/Daniel/Documents/stm/app/Drivers/Src/led.c ****     return;
 206:/mnt/c/Users/Daniel/Documents/stm/app/Drivers/Src/led.c **** }
 514              		.loc 1 206 0
 515 0028 08B0     		add	sp, sp, #32
 516              	.LCFI29:
 517              		.cfi_def_cfa_offset 16
 518              		@ sp needed
 519 002a 70BD     		pop	{r4, r5, r6, pc}
 520              	.L38:
 521              		.align	2
 522              	.L37:
 523 002c 00000000 		.word	.LANCHOR1
 524              		.cfi_endproc
 525              	.LFE80:
 527              		.section	.text.led_test,"ax",%progbits
 528              		.align	1
 529              		.global	led_test
 530              		.syntax unified
 531              		.thumb
 532              		.thumb_func
 533              		.fpu softvfp
 535              	led_test:
 536              	.LFB81:
 207:/mnt/c/Users/Daniel/Documents/stm/app/Drivers/Src/led.c **** 
 208:/mnt/c/Users/Daniel/Documents/stm/app/Drivers/Src/led.c **** void led_test()
 209:/mnt/c/Users/Daniel/Documents/stm/app/Drivers/Src/led.c **** {
 537              		.loc 1 209 0
 538              		.cfi_startproc
 539              		@ args = 0, pretend = 0, frame = 0
 540              		@ frame_needed = 0, uses_anonymous_args = 0
ARM GAS  /tmp/ccZ75Kv0.s 			page 14


 541 0000 70B5     		push	{r4, r5, r6, lr}
 542              	.LCFI30:
 543              		.cfi_def_cfa_offset 16
 544              		.cfi_offset 4, -16
 545              		.cfi_offset 5, -12
 546              		.cfi_offset 6, -8
 547              		.cfi_offset 14, -4
 548 0002 88B0     		sub	sp, sp, #32
 549              	.LCFI31:
 550              		.cfi_def_cfa_offset 48
 210:/mnt/c/Users/Daniel/Documents/stm/app/Drivers/Src/led.c ****     led_On(collArray[ledCollections_1]);
 551              		.loc 1 210 0
 552 0004 074E     		ldr	r6, .L41
 553 0006 6C46     		mov	r4, sp
 554 0008 06F11005 		add	r5, r6, #16
 555 000c 0FCD     		ldmia	r5!, {r0, r1, r2, r3}
 556 000e 0FC4     		stmia	r4!, {r0, r1, r2, r3}
 557 0010 95E80700 		ldm	r5, {r0, r1, r2}
 558 0014 84E80700 		stm	r4, {r0, r1, r2}
 559 0018 96E80F00 		ldm	r6, {r0, r1, r2, r3}
 560 001c FFF7FEFF 		bl	led_On
 561              	.LVL23:
 211:/mnt/c/Users/Daniel/Documents/stm/app/Drivers/Src/led.c ****     return;
 212:/mnt/c/Users/Daniel/Documents/stm/app/Drivers/Src/led.c **** }
 562              		.loc 1 212 0
 563 0020 08B0     		add	sp, sp, #32
 564              	.LCFI32:
 565              		.cfi_def_cfa_offset 16
 566              		@ sp needed
 567 0022 70BD     		pop	{r4, r5, r6, pc}
 568              	.L42:
 569              		.align	2
 570              	.L41:
 571 0024 00000000 		.word	.LANCHOR1
 572              		.cfi_endproc
 573              	.LFE81:
 575              		.section	.text.led_test2,"ax",%progbits
 576              		.align	1
 577              		.global	led_test2
 578              		.syntax unified
 579              		.thumb
 580              		.thumb_func
 581              		.fpu softvfp
 583              	led_test2:
 584              	.LFB82:
 213:/mnt/c/Users/Daniel/Documents/stm/app/Drivers/Src/led.c **** void led_test2()
 214:/mnt/c/Users/Daniel/Documents/stm/app/Drivers/Src/led.c **** {
 585              		.loc 1 214 0
 586              		.cfi_startproc
 587              		@ args = 0, pretend = 0, frame = 0
 588              		@ frame_needed = 0, uses_anonymous_args = 0
 589 0000 70B5     		push	{r4, r5, r6, lr}
 590              	.LCFI33:
 591              		.cfi_def_cfa_offset 16
 592              		.cfi_offset 4, -16
 593              		.cfi_offset 5, -12
 594              		.cfi_offset 6, -8
ARM GAS  /tmp/ccZ75Kv0.s 			page 15


 595              		.cfi_offset 14, -4
 596 0002 88B0     		sub	sp, sp, #32
 597              	.LCFI34:
 598              		.cfi_def_cfa_offset 48
 215:/mnt/c/Users/Daniel/Documents/stm/app/Drivers/Src/led.c ****     led_Off(collArray[ledCollections_1]);
 599              		.loc 1 215 0
 600 0004 094E     		ldr	r6, .L45
 601 0006 6C46     		mov	r4, sp
 602 0008 06F11005 		add	r5, r6, #16
 603 000c 0FCD     		ldmia	r5!, {r0, r1, r2, r3}
 604 000e 0FC4     		stmia	r4!, {r0, r1, r2, r3}
 605 0010 95E80700 		ldm	r5, {r0, r1, r2}
 606 0014 84E80700 		stm	r4, {r0, r1, r2}
 607 0018 96E80F00 		ldm	r6, {r0, r1, r2, r3}
 608 001c FFF7FEFF 		bl	led_Off
 609              	.LVL24:
 216:/mnt/c/Users/Daniel/Documents/stm/app/Drivers/Src/led.c ****     // collArray[ledCollections_1].color = ledColors_Red;
 217:/mnt/c/Users/Daniel/Documents/stm/app/Drivers/Src/led.c ****     led_ColorChange(collArray, ledColors_Red);
 610              		.loc 1 217 0
 611 0020 0121     		movs	r1, #1
 612 0022 3046     		mov	r0, r6
 613 0024 FFF7FEFF 		bl	led_ColorChange
 614              	.LVL25:
 218:/mnt/c/Users/Daniel/Documents/stm/app/Drivers/Src/led.c ****     return;
 219:/mnt/c/Users/Daniel/Documents/stm/app/Drivers/Src/led.c **** }...
 615              		.loc 1 219 0
 616 0028 08B0     		add	sp, sp, #32
 617              	.LCFI35:
 618              		.cfi_def_cfa_offset 16
 619              		@ sp needed
 620 002a 70BD     		pop	{r4, r5, r6, pc}
 621              	.L46:
 622              		.align	2
 623              	.L45:
 624 002c 00000000 		.word	.LANCHOR1
 625              		.cfi_endproc
 626              	.LFE82:
 628              		.section	.data.collArray,"aw",%progbits
 629              		.align	2
 630              		.set	.LANCHOR1,. + 0
 633              	collArray:
 634 0000 0040     		.short	16384
 635 0002 0000     		.space	2
 636 0004 00040240 		.word	1073873920
 637 0008 0100     		.short	1
 638 000a 0000     		.space	2
 639 000c 00040240 		.word	1073873920
 640 0010 8000     		.short	128
 641 0012 0000     		.space	2
 642 0014 00040240 		.word	1073873920
 643 0018 04       		.byte	4
 644 0019 000000   		.space	3
 645 001c 00000000 		.word	0
 646 0020 E8030000 		.word	1000
 647 0024 0A000000 		.word	10
 648 0028 00       		.byte	0
 649 0029 00       		.byte	0
ARM GAS  /tmp/ccZ75Kv0.s 			page 16


 650 002a 0000     		.space	2
 651              		.section	.rodata.__func__.6756,"a",%progbits
 652              		.align	2
 653              		.set	.LANCHOR0,. + 0
 656              	__func__.6756:
 657 0000 6C65645F 		.ascii	"led_Blink\000"
 657      426C696E 
 657      6B00
 658              		.section	.rodata.led_Blink.str1.4,"aMS",%progbits,1
 659              		.align	2
 660              	.LC0:
 661 0000 636F6C6C 		.ascii	"coll.blink.numBlinks >= 0\000"
 661      2E626C69 
 661      6E6B2E6E 
 661      756D426C 
 661      696E6B73 
 662 001a 0000     		.space	2
 663              	.LC1:
 664 001c 2F6D6E74 		.ascii	"/mnt/c/Users/Daniel/Documents/stm/app/Drivers/Src/l"
 664      2F632F55 
 664      73657273 
 664      2F44616E 
 664      69656C2F 
 665 004f 65642E63 		.ascii	"ed.c\000"
 665      00
 666              	.LC2:
 667 0054 636F6C6C 		.ascii	"coll.behavior == ledBehavior_Blinking\000"
 667      2E626568 
 667      6176696F 
 667      72203D3D 
 667      206C6564 
 668              		.text
 669              	.Letext0:
 670              		.file 2 "/mnt/c/Users/Daniel/Documents/stm/app/Drivers/inc/led.h"
 671              		.file 3 "/opt/gcc-arm-none-eabi-7-2017-q4-major/arm-none-eabi/include/machine/_default_types.h"
 672              		.file 4 "/opt/gcc-arm-none-eabi-7-2017-q4-major/arm-none-eabi/include/sys/_stdint.h"
 673              		.file 5 "/mnt/c/Users/Daniel/Documents/stm/ThirdParty/nucleo207/Drivers/CMSIS/Include/core_cm3.h"
 674              		.file 6 "/mnt/c/Users/Daniel/Documents/stm/ThirdParty/nucleo207/Drivers/CMSIS/Device/ST/STM32F2xx/
 675              		.file 7 "/mnt/c/Users/Daniel/Documents/stm/ThirdParty/nucleo207/Drivers/CMSIS/Device/ST/STM32F2xx/
 676              		.file 8 "/mnt/c/Users/Daniel/Documents/stm/ThirdParty/nucleo207/Drivers/CMSIS/Device/ST/STM32F2xx/
 677              		.file 9 "/mnt/c/Users/Daniel/Documents/stm/ThirdParty/nucleo207/Drivers/STM32F2xx_HAL_Driver/Inc/s
 678              		.file 10 "/opt/gcc-arm-none-eabi-7-2017-q4-major/arm-none-eabi/include/sys/lock.h"
 679              		.file 11 "/opt/gcc-arm-none-eabi-7-2017-q4-major/arm-none-eabi/include/sys/_types.h"
 680              		.file 12 "/opt/gcc-arm-none-eabi-7-2017-q4-major/lib/gcc/arm-none-eabi/7.2.1/include/stddef.h"
 681              		.file 13 "/opt/gcc-arm-none-eabi-7-2017-q4-major/arm-none-eabi/include/sys/reent.h"
 682              		.file 14 "/opt/gcc-arm-none-eabi-7-2017-q4-major/arm-none-eabi/include/assert.h"
 683              		.file 15 "/mnt/c/Users/Daniel/Documents/stm/ThirdParty/nucleo207/Drivers/STM32F2xx_HAL_Driver/Inc/
ARM GAS  /tmp/ccZ75Kv0.s 			page 17

